(dp1
S'output'
p2
S"<type 'exceptions.NameError'> name 'retorno_apache' is not defined"
p3
sS'layer'
p4
S'/opt/web2py/applications/tcc/views/estrutura/scan.html'
p5
sS'code'
p6
S'response.write(\'<!DOCTYPE html>\\n<html lang="en">\\n\\n<head>\\n\\n    <meta charset="utf-8">\\n    <meta http-equiv="X-UA-Compatible" content="IE=edge">\\n    <meta name="viewport" content="width=device-width, initial-scale=1">\\n    <meta name="description" content="">\\n    <meta name="author" content="">\\n\\n    <link rel="icon" href="\', escape=False)\nresponse.write(URL(a=\'tcc\', c=\'static\', f=\'images\'))\nresponse.write(\'/imagem.png">\\n\\n    <title>Vuln-Scan</title>\\n\\n    <!-- Bootstrap Core CSS -->\\n     <link href="\', escape=False)\nresponse.write(URL(a=\'tcc\', c=\'static\', f=\'css\'))\nresponse.write(\'/bootstrap.min.css" rel="stylesheet">\\n\\n    <!-- Custom CSS -->\\n   <link href="\', escape=False)\nresponse.write(URL(a=\'tcc\', c=\'static\', f=\'css\'))\nresponse.write(\'/sb-admin.css" rel="stylesheet">\\n\\n    <!-- Custom Fonts -->\\n    <link href="\', escape=False)\nresponse.write(URL(a=\'tcc\', c=\'static\', f=\'font-awesome\'))\nresponse.write(\'/css/font-awesome.min.css" rel="stylesheet" type="text/css">\\n\\n    <!-- HTML5 Shim and Respond.js IE8 support of HTML5 elements and media queries -->\\n    <!-- WARNING: Respond.js doesn\\\'t work if you view the page via file:// -->\\n    <!--[if lt IE 9]>\\n        <script src="https://oss.maxcdn.com/libs/html5shiv/3.7.0/html5shiv.js"></script>\\n        <script src="https://oss.maxcdn.com/libs/respond.js/1.4.2/respond.min.js"></script>\\n    <![endif]-->\\n\\n</head>\\n\\n<body>\\n\\n    <div id="wrapper">\\n\\n        <!-- Navigation -->\\n        <nav class="navbar navbar-inverse navbar-fixed-top" role="navigation">\\n            <!-- Brand and toggle get grouped for better mobile display -->\\n            <div class="navbar-header">\\n                <button type="button" class="navbar-toggle" data-toggle="collapse" data-target=".navbar-ex1-collapse">\\n                    <span class="sr-only">Toggle navigation</span>\\n                    <span class="icon-bar"></span>\\n                    <span class="icon-bar"></span>\\n                    <span class="icon-bar"></span>\\n                </button>\\n                <a class="navbar-brand" href="dash">VulnScan</a>\\n            </div>\\n            <!-- Top Menu Items -->\\n            <ul class="nav navbar-right top-nav">\\n                <li class="dropdown">\\n                    <a href="#" class="dropdown-toggle" data-toggle="dropdown"><i class="fa fa-envelope"></i> <b class="caret"></b></a>\\n                    <ul class="dropdown-menu message-dropdown">\\n                        <li class="message-preview">\\n                            <a href="#">\\n                                <div class="media">\\n                                    <span class="pull-left">\\n                                        <img class="media-object" src="http://placehold.it/50x50" alt="">\\n                                    </span>\\n                                    <div class="media-body">\\n                                        <h5 class="media-heading">\\n                                            <strong>Admin</strong>\\n                                        </h5>\\n                                        <p class="small text-muted"><i class="fa fa-clock-o"></i> Yesterday at 4:32 PM</p>\\n                                        <p>Lorem ipsum dolor sit amet, consectetur...</p>\\n                                    </div>\\n                                </div>\\n                            </a>\\n                        </li>\\n                        <li class="message-preview">\\n                            <a href="#">\\n                                <div class="media">\\n                                    <span class="pull-left">\\n                                        <img class="media-object" src="http://placehold.it/50x50" alt="">\\n                                    </span>\\n                                    <div class="media-body">\\n                                        <h5 class="media-heading">\\n                                            <strong>Admin</strong>\\n                                        </h5>\\n                                        <p class="small text-muted"><i class="fa fa-clock-o"></i> Yesterday at 4:32 PM</p>\\n                                        <p>Lorem ipsum dolor sit amet, consectetur...</p>\\n                                    </div>\\n                                </div>\\n                            </a>\\n                        </li>\\n                        <li class="message-preview">\\n                            <a href="#">\\n                                <div class="media">\\n                                    <span class="pull-left">\\n                                        <img class="media-object" src="http://placehold.it/50x50" alt="">\\n                                    </span>\\n                                    <div class="media-body">\\n                                        <h5 class="media-heading">\\n                                            <strong>Admin</strong>\\n                                        </h5>\\n                                        <p class="small text-muted"><i class="fa fa-clock-o"></i> Yesterday at 4:32 PM</p>\\n                                        <p>Lorem ipsum dolor sit amet, consectetur...</p>\\n                                    </div>\\n                                </div>\\n                            </a>\\n                        </li>\\n                        <li class="message-footer">\\n                            <a href="#">Read All New Messages</a>\\n                        </li>\\n                    </ul>\\n                </li>\\n                <li class="dropdown">\\n                    <a href="#" class="dropdown-toggle" data-toggle="dropdown"><i class="fa fa-bell"></i> <b class="caret"></b></a>\\n                    <ul class="dropdown-menu alert-dropdown">\\n                        <li>\\n                            <a href="#">Alert Name <span class="label label-default">Alert Badge</span></a>\\n                        </li>\\n                        <li>\\n                            <a href="#">Alert Name <span class="label label-primary">Alert Badge</span></a>\\n                        </li>\\n                        <li>\\n                            <a href="#">Alert Name <span class="label label-success">Alert Badge</span></a>\\n                        </li>\\n                        <li>\\n                            <a href="#">Alert Name <span class="label label-info">Alert Badge</span></a>\\n                        </li>\\n                        <li>\\n                            <a href="#">Alert Name <span class="label label-warning">Alert Badge</span></a>\\n                        </li>\\n                        <li>\\n                            <a href="#">Alert Name <span class="label label-danger">Alert Badge</span></a>\\n                        </li>\\n                        <li class="divider"></li>\\n                        <li>\\n                            <a href="#">View All</a>\\n                        </li>\\n                    </ul>\\n                </li>\\n                <li class="dropdown">\\n                    <a href="#" class="dropdown-toggle" data-toggle="dropdown"><i class="fa fa-user"></i> Admin <b class="caret"></b></a>\\n                    <ul class="dropdown-menu">\\n                        <li>\\n                            <a href="#"><i class="fa fa-fw fa-user"></i> Perfil</a>\\n                        </li>\\n                        <li>\\n                            <a href="#"><i class="fa fa-fw fa-envelope"></i> Inbox</a>\\n                        </li>\\n                        <li>\\n                            <a href="#"><i class="fa fa-fw fa-gear"></i> Configura\\xc3\\xa7\\xc3\\xb5es</a>\\n                        </li>\\n                        <li class="divider"></li>\\n                        <li>\\n                            <a href="#"><i class="fa fa-fw fa-power-off"></i> Sair</a>\\n                        </li>\\n                    </ul>\\n                </li>\\n            </ul>\\n            <!-- Sidebar Menu Items - These collapse to the responsive navigation menu on small screens -->\\n            <div class="collapse navbar-collapse navbar-ex1-collapse">\\n                <ul class="nav navbar-nav side-nav">\\n                    <li>\\n                        <a href="dash"><i class="fa fa-fw fa-dashboard"></i> Dashboard</a>\\n                    </li>\\n                    <li>\\n                        <a href="scan"><i class="fa fa-fw fa-bar-chart-o"></i> Scans</a>\\n                    </li>\\n                    <li>\\n                        <a href="relatorio"><i class="fa fa-fw fa-table"></i> Relat\\xc3\\xb3rios</a>\\n                    </li>\\n                    <li>\\n                        <a href="settings"><i class="fa fa-fw fa-edit"></i> Configura\\xc3\\xa7\\xc3\\xb5es</a>\\n                    </li>\\n                    <!--<li>\\n                        <a href="bootstrap-elements.html"><i class="fa fa-fw fa-desktop"></i> Bootstrap Elements</a>\\n                    </li>\\n                    <li>\\n                        <a href="bootstrap-grid.html"><i class="fa fa-fw fa-wrench"></i> Bootstrap Grid</a>\\n                    </li>\\n                    <li>\\n                        <a href="javascript:;" data-toggle="collapse" data-target="#demo"><i class="fa fa-fw fa-arrows-v"></i> Dropdown <i class="fa fa-fw fa-caret-down"></i></a>\\n                        <ul id="demo" class="collapse">\\n                            <li>\\n                                <a href="#">Dropdown Item</a>\\n                            </li>\\n                            <li>\\n                                <a href="#">Dropdown Item</a>\\n                            </li>\\n                        </ul>\\n                    </li>\\n                    <li class="active">\\n                        <a href="blank-page.html"><i class="fa fa-fw fa-file"></i> Blank Page</a>\\n                    </li>\\n                    <li>\\n                        <a href="index-rtl.html"><i class="fa fa-fw fa-dashboard"></i> RTL Dashboard</a>\\n                    </li>-->\\n                </ul>\\n            </div>\\n            <!-- /.navbar-collapse -->\\n        </nav>\\n\\n        <div id="page-wrapper">\\n            \', escape=False)\nresponse.write(\'\\n<br>\\n<div class="container-fluid">\\n    <!-- Page Heading -->\\n    <div class="row">\\n        <div class="col-lg-12">\\n            <h1 class="page-header">\\n                Scans\\n                <small>Subheading</small>\\n            </h1>\\n            <ol class="breadcrumb">\\n                <li>\\n                    <i class="fa fa-dashboard"></i>  <a href="dash.html">Dashboard</a>\\n                </li>\\n                <li class="active">\\n                    <i class="fa fa-bar-chart-o"></i> Scans\\n                </li>\\n            </ol>\\n        </div>\\n    </div><!-- /.row -->\\n</div><!-- /.container-fluid -->\\n\\n\\n<table class="table table-bordered table-hover">\\n    <thead>\\n        <tr>\\n            <th>Servi\\xc3\\xa7o:</th>\\n            <th>Status:</th>\\n            <th>A\\xc3\\xa7\\xc3\\xa3o:</th>\\n        </tr>\\n    </thead>\\n\\n    <tbody>\\n        <td>Apache2</td>\\n        <td>\', escape=False)\nresponse.write(retorno_apache)\nresponse.write(\'</td>\\n        <td>\\n            <a href="javascript:start_apache()" title="Start"><i class="fa-play"></i></a>\\n            <a href="javascript:stop_apache()" title="Stop"><i class="fa-stop"></i></a>\\n            <a href="javascript:restart_apache()" title="Restart"><i class="fa-refresh"></i></a>\\n        </td>\\n    </tbody>\\n\\n</table>\\n\', escape=False)\nresponse.write(\'\\n        </div>\\n\\n    </div>\\n\\n    <!-- jQuery -->\\n    <script src="\', escape=False)\nresponse.write(URL(a=\'tcc\', c=\'static\', f=\'js\'))\nresponse.write(\'/jquery.js"></script>\\n\\n    <!-- Bootstrap Core JavaScript -->\\n    <script src="\', escape=False)\nresponse.write(URL(a=\'tcc\', c=\'static\', f=\'js\'))\nresponse.write(\'/bootstrap.min.js"></script>\\n\\n</body>\\n\\n</html>\\n\\n\', escape=False)\nresponse.write(\'\\n<script>\\n\\nfunction start_apache(){\\n    $.get("\', escape=False)\nresponse.write(URL(a=\'tcc\', c=\'control\', f=\'iniciar_servico_apache\'))\nresponse.write(\'", function( data ) {\\n            location.reload();\\n    });\\n}\\n\\nfunction stop_apache(){\\n    $.get("\', escape=False)\nresponse.write(URL(a=\'tcc\', c=\'control\', f=\'parar_servico_apache\'))\nresponse.write(\'", function( data ) {\\n\\t\\t    location.reload();\\n    });\\n}\\n\\nfunction restart_apache(){\\n    $.get("\', escape=False)\nresponse.write(URL(a=\'tcc\', c=\'control\', f=\'reiniciar_servico_apache\'))\nresponse.write(\'", function( data ) {\\n\\t\\t    location.reload();\\n    });\\n}\\n\\n</script>\\n\', escape=False)'
p7
sS'snapshot'
p8
(dp9
sS'traceback'
p10
S'Traceback (most recent call last):\n  File "/opt/web2py/gluon/restricted.py", line 216, in restricted\n    exec(ccode, environment)\n  File "<string>", line 11, in <module>\nNameError: name \'retorno_apache\' is not defined\n'
p11
s.