(dp1
S'output'
p2
S"<type 'exceptions.NameError'> name 'form' is not defined"
p3
sS'layer'
p4
S'/var/www/web2py/applications/tcc/views/estrutura/login.html'
p5
sS'code'
p6
S'response.write(\'<!DOCTYPE html>\\n<html >\\n<head>\\n  <meta charset="UTF-8">\\n  <title>VulnScan</title>\\n     <link href="//netdna.bootstrapcdn.com/font-awesome/4.0.3/css/font-awesome.css" rel="stylesheet">\\n  <link rel="icon" href="imagem.png">\\n\\n    <style>\\n        /* NOTE: The styles were added inline because Prefixfree needs access to your styles and they must be inlined if they are on local disk! */\\n        /*still in the works :P*/\\n        /*variables*/\\n        /*general style*/\\n        /*google font*/\\n        @import "http://fonts.googleapis.com/css?family=Open+Sans:300italic,400italic,700italic,300,400,700)";\\n        body {\\n          font: 13px/20px "Open Sans", Tahoma, Verdana, sans-serif;\\n          color: #a7a599;\\n          background: #31302b;\\n        }\\n\\n        /*Login form style*/\\n        /* === Logo === */\\n        .logo {\\n          background-position: center;\\n          height: 60px;\\n          width: 140px;\\n          margin: 100px auto 30px auto;\\n        }\\n\\n        /* === Form === */\\n        .form {\\n          width: 100%;\\n        }\\n        .form .field {\\n          position: relative;\\n          margin: 0 50px;\\n        }\\n        .form .field i {\\n          font-size: 18px;\\n          left: 0px;\\n          top: 0px;\\n          position: absolute;\\n          height: 44px;\\n          width: 44px;\\n          color: #f7f3eb;\\n          background: #676056;\\n          text-align: center;\\n          line-height: 44px;\\n          transition: all 0.3s ease-out;\\n          pointer-events: none;\\n        }\\n\\n        /* === Login styles === */\\n        .login {\\n          position: relative;\\n          margin: 100px auto;\\n          width: 370px;\\n          height: 315px;\\n          background: white;\\n          border-radius: 3px;\\n        }\\n        .login:before {\\n          content: \\\'\\\';\\n          position: absolute;\\n          top: -8px;\\n          right: -8px;\\n          bottom: -8px;\\n          left: -8px;\\n          z-index: -1;\\n          background: rgba(255, 255, 255, 0.1);\\n          border-radius: 4px;\\n        }\\n        .login h1 {\\n          line-height: 55px;\\n          font-size: 24px;\\n          font-weight: bold;\\n          font-family: \\\'Open Sans\\\', sans-serif;\\n          text-transform: uppercase;\\n          color: #fff;\\n          text-align: center;\\n          background: #1abc9c;\\n          border-top-left-radius: 3px;\\n          border-top-right-radius: 3px;\\n        }\\n        .login .submit {\\n          text-align: center;\\n        }\\n        .login p:first-child {\\n          margin-top: 30px;\\n        }\\n        .login p .remember {\\n          float: left;\\n        }\\n        .login p .remember label {\\n          color: #a7a599;\\n          font-size: 12px;\\n          cursor: pointer;\\n        }\\n        .login p .forgot {\\n          float: right;\\n          margin-right: 50px;\\n        }\\n        .login p .forgot a {\\n          color: #a7a599;\\n          font-size: 12px;\\n          text-decoration: none;\\n          font-style: italic;\\n          transition: all 0.3s ease-out;\\n        }\\n        .login p .forgot a:hover {\\n          color: #f2672e;\\n        }\\n\\n        /*input style*/\\n        /* === Input Form === */\\n        ::-webkit-input-placeholder {\\n          color: #ded9cf;\\n          font-family: \\\'Open Sans\\\';\\n        }\\n\\n        :-moz-placeholder {\\n          color: #ded9cf !important;\\n          font-family: \\\'Open Sans\\\';\\n        }\\n\\n        .form input[type=text], input[type=password] {\\n          font-family: \\\'Open Sans\\\', Calibri, Arial, sans-serif;\\n          font-size: 14px;\\n          font-weight: 400;\\n          padding: 10px 15px 10px 55px;\\n          position: relative;\\n          width: 200px;\\n          height: 24px;\\n          color: #676056;\\n          border: none;\\n          background: #f7f3eb;\\n          color: #777;\\n          transition: color 0.3s ease-out;\\n        }\\n\\n        .form input[type=text] {\\n          margin-bottom: 15px;\\n        }\\n\\n        .form input[type=text]:hover ~ i,\\n        .form input[type=password]:hover ~ i {\\n          color: #27ae60;\\n        }\\n\\n        .form input[type=text]:focus ~ i,\\n        .form input[type=password]:focus ~ i {\\n          color: #27ae60;\\n        }\\n\\n        .form input[type=text]:focus,\\n        .form input[type=password]:focus,\\n        .form button[type=submit]:focus {\\n          outline: none;\\n        }\\n\\n        .form input[type=submit] {\\n          margin-top: 15px;\\n          width: 270px;\\n          text-align: center;\\n          font-size: 14px;\\n          font-family: \\\'Open Sans\\\',sans-serif;\\n          font-weight: bold;\\n          padding: 12px 0;\\n          letter-spacing: 0;\\n          box-shadow: inset 0px 0px 0px 0px #1abc9c;\\n          color: #fff;\\n          background-color: #16a085;\\n          text-shadow: none;\\n          text-transform: uppercase;\\n          border: none;\\n          cursor: pointer;\\n          position: relative;\\n          margin-bottom: 20px;\\n          -webkit-animation: shadowFadeOut 0.4s;\\n          -moz-animation: shadowFadeOut 0.4s;\\n        }\\n\\n        .form input[type=submit]:hover, input[type=submit]:focus {\\n          color: #fff;\\n          box-shadow: inset 0px 46px 0px 0px #1abc9c;\\n          -webkit-animation: shadowFade 0.4s;\\n          -moz-animation: shadowFade 0.4s;\\n        }\\n\\n        /*keyframes for input animation*/\\n        @keyframes shadowFade {\\n          0% {\\n            box-shadow: inset 0px 0px 0px 0px #1abc9c;\\n            color: #fff;\\n          }\\n          100% {\\n            box-shadow: inset 0px 46px 0px 0px #1abc9c;\\n            color: #fff;\\n          }\\n        }\\n        @keyframes shadowFadeOut {\\n          0% {\\n            box-shadow: inset 0px 46px 0px 0px #1abc9c;\\n            color: #fff;\\n          }\\n          100% {\\n            box-shadow: inset 0px 0px 0px 0px #1abc9c;\\n            color: #fff;\\n          }\\n        }\\n        @-webkit-keyframes shadowFade {\\n          0% {\\n            box-shadow: inset 0px 0px 0px 0px #1abc9c;\\n            color: #fff;\\n          }\\n          100% {\\n            box-shadow: inset 0px 46px 0px 0px #1abc9c;\\n            color: #fff;\\n          }\\n        }\\n        @-webkit-keyframes shadowFadeOut {\\n          0% {\\n            box-shadow: inset 0px 46px 0px 0px #1abc9c;\\n            color: #fff;\\n          }\\n          100% {\\n            box-shadow: inset 0px 0px 0px 0px #1abc9c;\\n            color: #fff;\\n          }\\n        }\\n        @-moz-keyframes shadowFade {\\n          0% {\\n            box-shadow: inset 0px 0px 0px 0px #1abc9c;\\n            color: #fff;\\n          }\\n          100% {\\n            box-shadow: inset 0px 46px 0px 0px #1abc9c;\\n            color: #fff;\\n          }\\n        }\\n        @-moz-keyframes shadowFadeOut {\\n          0% {\\n            box-shadow: inset 0px 44px 0px 0px #1abc9c;\\n            color: #fff;\\n          }\\n          100% {\\n            box-shadow: inset 0px 0px 0px 0px #1abc9c;\\n            color: #fff;\\n          }\\n        }\\n        /*continued styling for input */\\n        .form input[type="checkbox"] {\\n          display: none;\\n        }\\n\\n        /*.form input[type="checkbox"] + label span {\\n            display:inline-block;\\n            width:16px;\\n            height:16px;\\n            margin: -2px 4px 0 50px;\\n            vertical-align:middle;\\n            background:url("../img/checkbox.png") left top no-repeat;\\n            cursor:pointer;\\n        }\\n        .form input[type="checkbox"]:checked + label span {\\n            background:url("../img/checkbox.png") -16px top no-repeat;\\n        }*/\\n        /* === Copyright === */\\n        .copyright {\\n          margin-top: 30px;\\n          text-align: center;\\n        }\\n        .copyright p, .copyright a {\\n          color: #828078;\\n          font-size: 12px;\\n          text-decoration: none;\\n          transition: color 0.3s ease-out;\\n        }\\n        .copyright p a:hover, .copyright a a:hover {\\n          color: #f2672e;\\n        }\\n    </style>\\n\\n  <script src="https://cdnjs.cloudflare.com/ajax/libs/prefixfree/1.0.7/prefixfree.min.js"></script>\\n\\n</head>\\n\\n<body>\\n  <div class="login">\\n    <h1>Login</h1>\\n\\n    \', escape=False)\nresponse.write(form.custom.begin)\nresponse.write(\'\\n    \', escape=False)\nresponse.write(form.custom.widget.username)\nresponse.write(\'\\n    \', escape=False)\nresponse.write(form.custom.widget.password)\nresponse.write(\' \\n    \', escape=False)\nresponse.write(form.custom.submit)\nresponse.write(\'\\n    \', escape=False)\nresponse.write(form.custom.end)\nresponse.write(\'\\n\\n\\n  </div> <!--/ Login-->\\n\\n  <div class="copyright">\\n      <p>An\\xc3\\xa1lise de Vulnerabilidade em Redes Cabeada e Sem Fio</p>\\n\\n  </div>\\n\\n</body>\\n</html>\\n\\n\\n\', escape=False)'
p7
sS'snapshot'
p8
(dp9
S'exception'
p10
(dp11
S'__hash__'
p12
S"<method-wrapper '__hash__' of exceptions.NameError object>"
p13
sS'__setattr__'
p14
S"<method-wrapper '__setattr__' of exceptions.NameError object>"
p15
sS'__reduce_ex__'
p16
S'<built-in method __reduce_ex__ of exceptions.NameError object>'
p17
sS'__getslice__'
p18
S"<method-wrapper '__getslice__' of exceptions.NameError object>"
p19
sS'__getitem__'
p20
S"<method-wrapper '__getitem__' of exceptions.NameError object>"
p21
sS'__setstate__'
p22
S'<built-in method __setstate__ of exceptions.NameError object>'
p23
sS'args'
p24
S'("name \'form\' is not defined",)'
p25
sS'__reduce__'
p26
S'<built-in method __reduce__ of exceptions.NameError object>'
p27
sS'__str__'
p28
S"<method-wrapper '__str__' of exceptions.NameError object>"
p29
sS'__format__'
p30
S'<built-in method __format__ of exceptions.NameError object>'
p31
sS'__getattribute__'
p32
S"<method-wrapper '__getattribute__' of exceptions.NameError object>"
p33
sS'__class__'
p34
S"<type 'exceptions.NameError'>"
p35
sS'__unicode__'
p36
S'<built-in method __unicode__ of exceptions.NameError object>'
p37
sS'__delattr__'
p38
S"<method-wrapper '__delattr__' of exceptions.NameError object>"
p39
sS'__subclasshook__'
p40
S'<built-in method __subclasshook__ of type object>'
p41
sS'__repr__'
p42
S"<method-wrapper '__repr__' of exceptions.NameError object>"
p43
sS'__dict__'
p44
S'{}'
p45
sS'__sizeof__'
p46
S'<built-in method __sizeof__ of exceptions.NameError object>'
p47
sS'__doc__'
p48
S"'Name not found globally.'"
p49
sS'__init__'
p50
S"<method-wrapper '__init__' of exceptions.NameError object>"
p51
sS'__new__'
p52
S'<built-in method __new__ of type object>'
p53
ssS'evalue'
p54
S"name 'form' is not defined"
p55
sS'request'
p56
cgluon.html
XML_unpickle
p57
(S's}W\x00\x00<div><table><tr><td style="font-weight:bold;vertical-align:top;">ajax</td><td style="vertical-align:top;">:</td><td><div>False</div></td></tr><tr><td style="font-weight:bold;vertical-align:top;">application</td><td style="vertical-align:top;">:</td><td><div>tcc</div></td></tr><tr><td style="font-weight:bold;vertical-align:top;">args</td><td style="vertical-align:top;">:</td><td><div><table></table></div></td></tr><tr><td style="font-weight:bold;vertical-align:top;">cid</td><td style="vertical-align:top;">:</td><td><div>None</div></td></tr><tr><td style="font-weight:bold;vertical-align:top;">client</td><td style="vertical-align:top;">:</td><td><div>127.0.0.1</div></td></tr><tr><td style="font-weight:bold;vertical-align:top;">controller</td><td style="vertical-align:top;">:</td><td><div>control</div></td></tr><tr><td style="font-weight:bold;vertical-align:top;">cookies</td><td style="vertical-align:top;">:</td><td><div><table><tr><td style="font-weight:bold;vertical-align:top;">session_id_admin</td><td style="vertical-align:top;">:</td><td><div>127.0.0.1-842ba54f-fe60-44c5-a8f3-be189cdfa528<table><tr><td style="font-weight:bold;vertical-align:top;">comment</td><td style="vertical-align:top;">:</td><td><div></div></td></tr><tr><td style="font-weight:bold;vertical-align:top;">domain</td><td style="vertical-align:top;">:</td><td><div></div></td></tr><tr><td style="font-weight:bold;vertical-align:top;">expires</td><td style="vertical-align:top;">:</td><td><div></div></td></tr><tr><td style="font-weight:bold;vertical-align:top;">httponly</td><td style="vertical-align:top;">:</td><td><div></div></td></tr><tr><td style="font-weight:bold;vertical-align:top;">max-age</td><td style="vertical-align:top;">:</td><td><div></div></td></tr><tr><td style="font-weight:bold;vertical-align:top;">path</td><td style="vertical-align:top;">:</td><td><div></div></td></tr><tr><td style="font-weight:bold;vertical-align:top;">secure</td><td style="vertical-align:top;">:</td><td><div></div></td></tr><tr><td style="font-weight:bold;vertical-align:top;">version</td><td style="vertical-align:top;">:</td><td><div></div></td></tr></table></div></td></tr><tr><td style="font-weight:bold;vertical-align:top;">session_id_tcc</td><td style="vertical-align:top;">:</td><td><div>127.0.0.1-05981b23-6924-4667-8d7f-da55bfe5f155<table><tr><td style="font-weight:bold;vertical-align:top;">comment</td><td style="vertical-align:top;">:</td><td><div></div></td></tr><tr><td style="font-weight:bold;vertical-align:top;">domain</td><td style="vertical-align:top;">:</td><td><div></div></td></tr><tr><td style="font-weight:bold;vertical-align:top;">expires</td><td style="vertical-align:top;">:</td><td><div></div></td></tr><tr><td style="font-weight:bold;vertical-align:top;">httponly</td><td style="vertical-align:top;">:</td><td><div></div></td></tr><tr><td style="font-weight:bold;vertical-align:top;">max-age</td><td style="vertical-align:top;">:</td><td><div></div></td></tr><tr><td style="font-weight:bold;vertical-align:top;">path</td><td style="vertical-align:top;">:</td><td><div></div></td></tr><tr><td style="font-weight:bold;vertical-align:top;">secure</td><td style="vertical-align:top;">:</td><td><div></div></td></tr><tr><td style="font-weight:bold;vertical-align:top;">version</td><td style="vertical-align:top;">:</td><td><div></div></td></tr></table></div></td></tr><tr><td style="font-weight:bold;vertical-align:top;">session_id_welcome</td><td style="vertical-align:top;">:</td><td><div>127.0.0.1-2478232e-eec4-4ed3-9bdd-48628ccb361b<table><tr><td style="font-weight:bold;vertical-align:top;">comment</td><td style="vertical-align:top;">:</td><td><div></div></td></tr><tr><td style="font-weight:bold;vertical-align:top;">domain</td><td style="vertical-align:top;">:</td><td><div></div></td></tr><tr><td style="font-weight:bold;vertical-align:top;">expires</td><td style="vertical-align:top;">:</td><td><div></div></td></tr><tr><td style="font-weight:bold;vertical-align:top;">httponly</td><td style="vertical-align:top;">:</td><td><div></div></td></tr><tr><td style="font-weight:bold;vertical-align:top;">max-age</td><td style="vertical-align:top;">:</td><td><div></div></td></tr><tr><td style="font-weight:bold;vertical-align:top;">path</td><td style="vertical-align:top;">:</td><td><div></div></td></tr><tr><td style="font-weight:bold;vertical-align:top;">secure</td><td style="vertical-align:top;">:</td><td><div></div></td></tr><tr><td style="font-weight:bold;vertical-align:top;">version</td><td style="vertical-align:top;">:</td><td><div></div></td></tr></table></div></td></tr></table></div></td></tr><tr><td style="font-weight:bold;vertical-align:top;">env</td><td style="vertical-align:top;">:</td><td><div><table><tr><td style="font-weight:bold;vertical-align:top;">HTTP_ACCEPT</td><td style="vertical-align:top;">:</td><td><div>text/html,application/xhtml+xml,application/xml;q=0.9,*/*;q=0.8</div></td></tr><tr><td style="font-weight:bold;vertical-align:top;">HTTP_ACCEPT_ENCODING</td><td style="vertical-align:top;">:</td><td><div>gzip, deflate</div></td></tr><tr><td style="font-weight:bold;vertical-align:top;">HTTP_ACCEPT_LANGUAGE</td><td style="vertical-align:top;">:</td><td><div>en-US,en;q=0.5</div></td></tr><tr><td style="font-weight:bold;vertical-align:top;">HTTP_CONNECTION</td><td style="vertical-align:top;">:</td><td><div>keep-alive</div></td></tr><tr><td style="font-weight:bold;vertical-align:top;">HTTP_COOKIE</td><td style="vertical-align:top;">:</td><td><div>session_id_welcome=127.0.0.1-2478232e-eec4-4ed3-9bdd-48628ccb361b; session_id_tcc=127.0.0.1-05981b23-6924-4667-8d7f-da55bfe5f155; session_id_admin=127.0.0.1-842ba54f-fe60-44c5-a8f3-be189cdfa528</div></td></tr><tr><td style="font-weight:bold;vertical-align:top;">HTTP_HOST</td><td style="vertical-align:top;">:</td><td><div>127.0.0.1:8000</div></td></tr><tr><td style="font-weight:bold;vertical-align:top;">HTTP_USER_AGENT</td><td style="vertical-align:top;">:</td><td><div>Mozilla/5.0 (X11; Linux x86_64; rv:45.0) Gecko/20100101 Firefox/45.0</div></td></tr><tr><td style="font-weight:bold;vertical-align:top;">PATH_INFO</td><td style="vertical-align:top;">:</td><td><div>/tcc/control/login</div></td></tr><tr><td style="font-weight:bold;vertical-align:top;">QUERY_STRING</td><td style="vertical-align:top;">:</td><td><div></div></td></tr><tr><td style="font-weight:bold;vertical-align:top;">REMOTE_ADDR</td><td style="vertical-align:top;">:</td><td><div>127.0.0.1</div></td></tr><tr><td style="font-weight:bold;vertical-align:top;">REMOTE_PORT</td><td style="vertical-align:top;">:</td><td><div>60458</div></td></tr><tr><td style="font-weight:bold;vertical-align:top;">REQUEST_METHOD</td><td style="vertical-align:top;">:</td><td><div>GET</div></td></tr><tr><td style="font-weight:bold;vertical-align:top;">SCRIPT_NAME</td><td style="vertical-align:top;">:</td><td><div></div></td></tr><tr><td style="font-weight:bold;vertical-align:top;">SERVER_NAME</td><td style="vertical-align:top;">:</td><td><div>kali</div></td></tr><tr><td style="font-weight:bold;vertical-align:top;">SERVER_PORT</td><td style="vertical-align:top;">:</td><td><div>8000</div></td></tr><tr><td style="font-weight:bold;vertical-align:top;">SERVER_PROTOCOL</td><td style="vertical-align:top;">:</td><td><div>HTTP/1.1</div></td></tr><tr><td style="font-weight:bold;vertical-align:top;">SERVER_SOFTWARE</td><td style="vertical-align:top;">:</td><td><div>Rocket 1.2.6</div></td></tr><tr><td style="font-weight:bold;vertical-align:top;">app_folders</td><td style="vertical-align:top;">:</td><td><div>set([&#x27;/var/www/web2py/applications/welcome/&#x27;, &#x27;/var/www/web2py/applications/tcc/&#x27;, &#x27;/var/www/web2py/applications/admin/&#x27;])</div></td></tr><tr><td style="font-weight:bold;vertical-align:top;">applications_parent</td><td style="vertical-align:top;">:</td><td><div>/var/www/web2py</div></td></tr><tr><td style="font-weight:bold;vertical-align:top;">cmd_args</td><td style="vertical-align:top;">:</td><td><div><table></table></div></td></tr><tr><td style="font-weight:bold;vertical-align:top;">cmd_options</td><td style="vertical-align:top;">:</td><td><div>&lt;Values at 0x7f0b461fdd40: {&#x27;verbose&#x27;: False, &#x27;ip&#x27;: &#x27;127.0.0.1&#x27;, &#x27;debuglevel&#x27;: 30, &#x27;with_scheduler&#x27;: False, &#x27;shutdown_timeout&#x27;: 5, &#x27;taskbar&#x27;: False, &#x27;with_coverage&#x27;: False, &#x27;pid_filename&#x27;: &#x27;httpserver.pid&#x27;, &#x27;maxthreads&#x27;: None, &#x27;softcron&#x27;: False, &#x27;server_name&#x27;: &#x27;kali&#x27;, &#x27;bpython&#x27;: False, &#x27;nogui&#x27;: False, &#x27;port&#x27;: 8000, &#x27;print_errors&#x27;: False, &#x27;extcron&#x27;: False, &#x27;runcron&#x27;: False, &#x27;run_system_tests&#x27;: False, &#x27;test&#x27;: None, &#x27;folder&#x27;: &#x27;/var/www/web2py&#x27;, &#x27;config&#x27;: &#x27;&#x27;, &#x27;minthreads&#x27;: None, &#x27;shell&#x27;: None, &#x27;run&#x27;: &#x27;&#x27;, &#x27;log_filename&#x27;: &#x27;httpserver.log&#x27;, &#x27;profiler_dir&#x27;: None, &#x27;args&#x27;: [&#x27;&#x27;], &#x27;socket_timeout&#x27;: 5, &#x27;ssl_ca_certificate&#x27;: None, &#x27;scheduler&#x27;: None, &#x27;interfaces&#x27;: None, &#x27;ssl_private_key&#x27;: &#x27;&#x27;, &#x27;gae&#x27;: None, &#x27;password&#x27;: &#x27;******&#x27;, &#x27;request_queue_size&#x27;: 5, &#x27;ssl_certificate&#x27;: &#x27;&#x27;, &#x27;cronjob&#x27;: False, &#x27;numthreads&#x27;: None, &#x27;quiet&#x27;: False, &#x27;import_models&#x27;: False, &#x27;timeout&#x27;: 10, &#x27;plain&#x27;: False, &#x27;nobanner&#x27;: False}&gt;</div></td></tr><tr><td style="font-weight:bold;vertical-align:top;">db_sessions</td><td style="vertical-align:top;">:</td><td><div>set([])</div></td></tr><tr><td style="font-weight:bold;vertical-align:top;">debugging</td><td style="vertical-align:top;">:</td><td><div>False</div></td></tr><tr><td style="font-weight:bold;vertical-align:top;">gluon_parent</td><td style="vertical-align:top;">:</td><td><div>/var/www/web2py</div></td></tr><tr><td style="font-weight:bold;vertical-align:top;">http_accept</td><td style="vertical-align:top;">:</td><td><div>text/html,application/xhtml+xml,application/xml;q=0.9,*/*;q=0.8</div></td></tr><tr><td style="font-weight:bold;vertical-align:top;">http_accept_encoding</td><td style="vertical-align:top;">:</td><td><div>gzip, deflate</div></td></tr><tr><td style="font-weight:bold;vertical-align:top;">http_accept_language</td><td style="vertical-align:top;">:</td><td><div>en-US,en;q=0.5</div></td></tr><tr><td style="font-weight:bold;vertical-align:top;">http_connection</td><td style="vertical-align:top;">:</td><td><div>keep-alive</div></td></tr><tr><td style="font-weight:bold;vertical-align:top;">http_cookie</td><td style="vertical-align:top;">:</td><td><div>session_id_welcome=127.0.0.1-2478232e-eec4-4ed3-9bdd-48628ccb361b; session_id_tcc=127.0.0.1-05981b23-6924-4667-8d7f-da55bfe5f155; session_id_admin=127.0.0.1-842ba54f-fe60-44c5-a8f3-be189cdfa528</div></td></tr><tr><td style="font-weight:bold;vertical-align:top;">http_host</td><td style="vertical-align:top;">:</td><td><div>127.0.0.1:8000</div></td></tr><tr><td style="font-weight:bold;vertical-align:top;">http_user_agent</td><td style="vertical-align:top;">:</td><td><div>Mozilla/5.0 (X11; Linux x86_64; rv:45.0) Gecko/20100101 Firefox/45.0</div></td></tr><tr><td style="font-weight:bold;vertical-align:top;">is_jython</td><td style="vertical-align:top;">:</td><td><div>False</div></td></tr><tr><td style="font-weight:bold;vertical-align:top;">is_pypy</td><td style="vertical-align:top;">:</td><td><div>False</div></td></tr><tr><td style="font-weight:bold;vertical-align:top;">is_source</td><td style="vertical-align:top;">:</td><td><div>True</div></td></tr><tr><td style="font-weight:bold;vertical-align:top;">local_hosts</td><td style="vertical-align:top;">:</td><td><div><table><tr><td><div>kali</div></td></tr><tr><td><div>::1</div></td></tr><tr><td><div>127.0.1.1</div></td></tr><tr><td><div>::ffff:127.0.0.1</div></td></tr><tr><td><div>127.0.0.1</div></td></tr></table></div></td></tr><tr><td style="font-weight:bold;vertical-align:top;">path_info</td><td style="vertical-align:top;">:</td><td><div>/tcc/control/login</div></td></tr><tr><td style="font-weight:bold;vertical-align:top;">query_string</td><td style="vertical-align:top;">:</td><td><div></div></td></tr><tr><td style="font-weight:bold;vertical-align:top;">remote_addr</td><td style="vertical-align:top;">:</td><td><div>127.0.0.1</div></td></tr><tr><td style="font-weight:bold;vertical-align:top;">remote_port</td><td style="vertical-align:top;">:</td><td><div>60458</div></td></tr><tr><td style="font-weight:bold;vertical-align:top;">request_method</td><td style="vertical-align:top;">:</td><td><div>GET</div></td></tr><tr><td style="font-weight:bold;vertical-align:top;">request_uri</td><td style="vertical-align:top;">:</td><td><div>/tcc/control/login</div></td></tr><tr><td style="font-weight:bold;vertical-align:top;">script_name</td><td style="vertical-align:top;">:</td><td><div></div></td></tr><tr><td style="font-weight:bold;vertical-align:top;">server_name</td><td style="vertical-align:top;">:</td><td><div>kali</div></td></tr><tr><td style="font-weight:bold;vertical-align:top;">server_port</td><td style="vertical-align:top;">:</td><td><div>8000</div></td></tr><tr><td style="font-weight:bold;vertical-align:top;">server_protocol</td><td style="vertical-align:top;">:</td><td><div>HTTP/1.1</div></td></tr><tr><td style="font-weight:bold;vertical-align:top;">server_software</td><td style="vertical-align:top;">:</td><td><div>Rocket 1.2.6</div></td></tr><tr><td style="font-weight:bold;vertical-align:top;">web2py_path</td><td style="vertical-align:top;">:</td><td><div>/var/www/web2py</div></td></tr><tr><td style="font-weight:bold;vertical-align:top;">web2py_version</td><td style="vertical-align:top;">:</td><td><div>2.14.6-stable+timestamp.2016.05.10.00.21.47</div></td></tr><tr><td style="font-weight:bold;vertical-align:top;">wsgi.errors</td><td style="vertical-align:top;">:</td><td><div>&lt;open file &#x27;&lt;stderr&gt;&#x27;, mode &#x27;w&#x27; at 0x7f0b47f9c1e0&gt;</div></td></tr><tr><td style="font-weight:bold;vertical-align:top;">wsgi.file_wrapper</td><td style="vertical-align:top;">:</td><td><div>&lt;class wsgiref.util.FileWrapper at 0x7f0b4629c870&gt;</div></td></tr><tr><td style="font-weight:bold;vertical-align:top;">wsgi.input</td><td style="vertical-align:top;">:</td><td><div>&lt;socket._fileobject object at 0x7f0b20736ad0&gt;</div></td></tr><tr><td style="font-weight:bold;vertical-align:top;">wsgi.multiprocess</td><td style="vertical-align:top;">:</td><td><div>False</div></td></tr><tr><td style="font-weight:bold;vertical-align:top;">wsgi.multithread</td><td style="vertical-align:top;">:</td><td><div>True</div></td></tr><tr><td style="font-weight:bold;vertical-align:top;">wsgi.run_once</td><td style="vertical-align:top;">:</td><td><div>False</div></td></tr><tr><td style="font-weight:bold;vertical-align:top;">wsgi.url_scheme</td><td style="vertical-align:top;">:</td><td><div>http</div></td></tr><tr><td style="font-weight:bold;vertical-align:top;">wsgi.version</td><td style="vertical-align:top;">:</td><td><div><table><tr><td><div>1</div></td></tr><tr><td><div>0</div></td></tr></table></div></td></tr><tr><td style="font-weight:bold;vertical-align:top;">wsgi_errors</td><td style="vertical-align:top;">:</td><td><div>&lt;open file &#x27;&lt;stderr&gt;&#x27;, mode &#x27;w&#x27; at 0x7f0b47f9c1e0&gt;</div></td></tr><tr><td style="font-weight:bold;vertical-align:top;">wsgi_file_wrapper</td><td style="vertical-align:top;">:</td><td><div>&lt;class wsgiref.util.FileWrapper at 0x7f0b4629c870&gt;</div></td></tr><tr><td style="font-weight:bold;vertical-align:top;">wsgi_input</td><td style="vertical-align:top;">:</td><td><div>&lt;socket._fileobject object at 0x7f0b20736ad0&gt;</div></td></tr><tr><td style="font-weight:bold;vertical-align:top;">wsgi_multiprocess</td><td style="vertical-align:top;">:</td><td><div>False</div></td></tr><tr><td style="font-weight:bold;vertical-align:top;">wsgi_multithread</td><td style="vertical-align:top;">:</td><td><div>True</div></td></tr><tr><td style="font-weight:bold;vertical-align:top;">wsgi_run_once</td><td style="vertical-align:top;">:</td><td><div>False</div></td></tr><tr><td style="font-weight:bold;vertical-align:top;">wsgi_url_scheme</td><td style="vertical-align:top;">:</td><td><div>http</div></td></tr><tr><td style="font-weight:bold;vertical-align:top;">wsgi_version</td><td style="vertical-align:top;">:</td><td><div><table><tr><td><div>1</div></td></tr><tr><td><div>0</div></td></tr></table></div></td></tr></table></div></td></tr><tr><td style="font-weight:bold;vertical-align:top;">extension</td><td style="vertical-align:top;">:</td><td><div>html</div></td></tr><tr><td style="font-weight:bold;vertical-align:top;">folder</td><td style="vertical-align:top;">:</td><td><div>/var/www/web2py/applications/tcc/</div></td></tr><tr><td style="font-weight:bold;vertical-align:top;">function</td><td style="vertical-align:top;">:</td><td><div>login</div></td></tr><tr><td style="font-weight:bold;vertical-align:top;">global_settings</td><td style="vertical-align:top;">:</td><td><div><table><tr><td style="font-weight:bold;vertical-align:top;">app_folders</td><td style="vertical-align:top;">:</td><td><div>set([&#x27;/var/www/web2py/applications/welcome/&#x27;, &#x27;/var/www/web2py/applications/tcc/&#x27;, &#x27;/var/www/web2py/applications/admin/&#x27;])</div></td></tr><tr><td style="font-weight:bold;vertical-align:top;">applications_parent</td><td style="vertical-align:top;">:</td><td><div>/var/www/web2py</div></td></tr><tr><td style="font-weight:bold;vertical-align:top;">cmd_args</td><td style="vertical-align:top;">:</td><td><div><table></table></div></td></tr><tr><td style="font-weight:bold;vertical-align:top;">cmd_options</td><td style="vertical-align:top;">:</td><td><div>&lt;Values at 0x7f0b461fdd40: {&#x27;verbose&#x27;: False, &#x27;ip&#x27;: &#x27;127.0.0.1&#x27;, &#x27;debuglevel&#x27;: 30, &#x27;with_scheduler&#x27;: False, &#x27;shutdown_timeout&#x27;: 5, &#x27;taskbar&#x27;: False, &#x27;with_coverage&#x27;: False, &#x27;pid_filename&#x27;: &#x27;httpserver.pid&#x27;, &#x27;maxthreads&#x27;: None, &#x27;softcron&#x27;: False, &#x27;server_name&#x27;: &#x27;kali&#x27;, &#x27;bpython&#x27;: False, &#x27;nogui&#x27;: False, &#x27;port&#x27;: 8000, &#x27;print_errors&#x27;: False, &#x27;extcron&#x27;: False, &#x27;runcron&#x27;: False, &#x27;run_system_tests&#x27;: False, &#x27;test&#x27;: None, &#x27;folder&#x27;: &#x27;/var/www/web2py&#x27;, &#x27;config&#x27;: &#x27;&#x27;, &#x27;minthreads&#x27;: None, &#x27;shell&#x27;: None, &#x27;run&#x27;: &#x27;&#x27;, &#x27;log_filename&#x27;: &#x27;httpserver.log&#x27;, &#x27;profiler_dir&#x27;: None, &#x27;args&#x27;: [&#x27;&#x27;], &#x27;socket_timeout&#x27;: 5, &#x27;ssl_ca_certificate&#x27;: None, &#x27;scheduler&#x27;: None, &#x27;interfaces&#x27;: None, &#x27;ssl_private_key&#x27;: &#x27;&#x27;, &#x27;gae&#x27;: None, &#x27;password&#x27;: &#x27;******&#x27;, &#x27;request_queue_size&#x27;: 5, &#x27;ssl_certificate&#x27;: &#x27;&#x27;, &#x27;cronjob&#x27;: False, &#x27;numthreads&#x27;: None, &#x27;quiet&#x27;: False, &#x27;import_models&#x27;: False, &#x27;timeout&#x27;: 10, &#x27;plain&#x27;: False, &#x27;nobanner&#x27;: False}&gt;</div></td></tr><tr><td style="font-weight:bold;vertical-align:top;">db_sessions</td><td style="vertical-align:top;">:</td><td><div>set([])</div></td></tr><tr><td style="font-weight:bold;vertical-align:top;">debugging</td><td style="vertical-align:top;">:</td><td><div>False</div></td></tr><tr><td style="font-weight:bold;vertical-align:top;">gluon_parent</td><td style="vertical-align:top;">:</td><td><div>/var/www/web2py</div></td></tr><tr><td style="font-weight:bold;vertical-align:top;">is_jython</td><td style="vertical-align:top;">:</td><td><div>False</div></td></tr><tr><td style="font-weight:bold;vertical-align:top;">is_pypy</td><td style="vertical-align:top;">:</td><td><div>False</div></td></tr><tr><td style="font-weight:bold;vertical-align:top;">is_source</td><td style="vertical-align:top;">:</td><td><div>True</div></td></tr><tr><td style="font-weight:bold;vertical-align:top;">local_hosts</td><td style="vertical-align:top;">:</td><td><div><table><tr><td><div>kali</div></td></tr><tr><td><div>::1</div></td></tr><tr><td><div>127.0.1.1</div></td></tr><tr><td><div>::ffff:127.0.0.1</div></td></tr><tr><td><div>127.0.0.1</div></td></tr></table></div></td></tr><tr><td style="font-weight:bold;vertical-align:top;">web2py_version</td><td style="vertical-align:top;">:</td><td><div>2.14.6-stable+timestamp.2016.05.10.00.21.47</div></td></tr></table></div></td></tr><tr><td style="font-weight:bold;vertical-align:top;">is_https</td><td style="vertical-align:top;">:</td><td><div>False</div></td></tr><tr><td style="font-weight:bold;vertical-align:top;">is_local</td><td style="vertical-align:top;">:</td><td><div>True</div></td></tr><tr><td style="font-weight:bold;vertical-align:top;">is_restful</td><td style="vertical-align:top;">:</td><td><div>False</div></td></tr><tr><td style="font-weight:bold;vertical-align:top;">is_scheduler</td><td style="vertical-align:top;">:</td><td><div>False</div></td></tr><tr><td style="font-weight:bold;vertical-align:top;">is_shell</td><td style="vertical-align:top;">:</td><td><div>False</div></td></tr><tr><td style="font-weight:bold;vertical-align:top;">now</td><td style="vertical-align:top;">:</td><td><div>datetime.datetime(2017, 11, 3, 19, 3, 50, 762332)</div></td></tr><tr><td style="font-weight:bold;vertical-align:top;">raw_args</td><td style="vertical-align:top;">:</td><td><div></div></td></tr><tr><td style="font-weight:bold;vertical-align:top;">raw_extension</td><td style="vertical-align:top;">:</td><td><div>None</div></td></tr><tr><td style="font-weight:bold;vertical-align:top;">url</td><td style="vertical-align:top;">:</td><td><div>/tcc/control/login</div></td></tr><tr><td style="font-weight:bold;vertical-align:top;">utcnow</td><td style="vertical-align:top;">:</td><td><div>datetime.datetime(2017, 11, 3, 23, 3, 50, 762351)</div></td></tr><tr><td style="font-weight:bold;vertical-align:top;">wsgi</td><td style="vertical-align:top;">:</td><td><div>&lt;gluon.main.LazyWSGI object at 0x7f0b207a0450&gt;</div></td></tr></table></div>'
tRp58
sS'frames'
p59
(lp60
(dp61
S'file'
p62
S'/var/www/web2py/gluon/restricted.py'
p63
sS'dump'
p64
(dp65
S'environment'
p66
S"{'A': <class 'gluon.html.A'>, 'ANY_OF': <class 'gluon.validators.ANY_OF'>, 'ASSIGNJS': <function ASSIGNJS>, 'Auth': <class 'gluon.tools.Auth'>, 'B': <class 'gluon.html.B'>, 'BEAUTIFY': <class 'gluon.html.BEAUTIFY'>, 'BODY': <class 'gluon.html.BODY'>, 'BR': <class 'gluon.html.BR'>, 'BUTTON': <class 'gluon.html.BUTTON'>, 'CAT': <class 'gluon.html.CAT'>, ...}"
p67
sS'ccode'
p68
S'<code object <module> at 0x7f0b2060bd30, file "/...ications/tcc/views/estrutura/login.html", line 1>'
p69
ssS'lnum'
p70
I227
sS'lines'
p71
(dp72
I224
S'            ccode = code'
p73
sI225
S'        else:'
p74
sI226
S'            ccode = compile2(code, layer)'
p75
sI227
S'        exec ccode in environment'
p76
sI228
S'    except HTTP:'
p77
sI229
S'        raise'
p78
sI230
S'    except RestrictedError:'
p79
sI231
S'        # do not encapsulate (obfuscate) the original RestrictedError'
p80
sI222
S'    try:'
p81
sI223
S'        if isinstance(code, types.CodeType):'
p82
ssS'call'
p83
S'(code=r"response.write(\'<!DOCTYPE html>\\n<html >\\n<head>... </div>\\n\\n</body>\\n</html>\\n\\n\\n\', escape=False)", environment={\'A\': <class \'gluon.html.A\'>, \'ANY_OF\': <class \'gluon.validators.ANY_OF\'>, \'ASSIGNJS\': <function ASSIGNJS>, \'Auth\': <class \'gluon.tools.Auth\'>, \'B\': <class \'gluon.html.B\'>, \'BEAUTIFY\': <class \'gluon.html.BEAUTIFY\'>, \'BODY\': <class \'gluon.html.BODY\'>, \'BR\': <class \'gluon.html.BR\'>, \'BUTTON\': <class \'gluon.html.BUTTON\'>, \'CAT\': <class \'gluon.html.CAT\'>, ...}, layer=\'/var/www/web2py/applications/tcc/views/estrutura/login.html\')'
p84
sS'func'
p85
S'restricted'
p86
sa(dp87
g62
S'/var/www/web2py/applications/tcc/views/estrutura/login.html'
p88
sg64
(dp89
S'html'
p90
S'undefined'
p91
ssg70
I2
sg71
(dp92
I1
S'response.write(\'<!DOCTYPE html>\\n<html >\\n<head>\\n  <meta charset="UTF-8">\\n  <title>VulnScan</title>\\n     <link href="//netdna.bootstrapcdn.com/font-awesome/4.0.3/css/font-awesome.css" rel="stylesheet">\\n  <link rel="icon" href="imagem.png">\\n\\n    <style>\\n        /* NOTE: The styles were added inline because Prefixfree needs access to your styles and they must be inlined if they are on local disk! */\\n        /*still in the works :P*/\\n        /*variables*/\\n        /*general style*/\\n        /*google font*/\\n        @import "http://fonts.googleapis.com/css?family=Open+Sans:300italic,400italic,700italic,300,400,700)";\\n        body {\\n          font: 13px/20px "Open Sans", Tahoma, Verdana, sans-serif;\\n          color: #a7a599;\\n          background: #31302b;\\n        }\\n\\n        /*Login form style*/\\n        /* === Logo === */\\n        .logo {\\n          background-position: center;\\n          height: 60px;\\n          width: 140px;\\n          margin: 100px auto 30px auto;\\n        }\\n\\n        /* === Form === */\\n        .form {\\n          width: 100%;\\n        }\\n        .form .field {\\n          position: relative;\\n          margin: 0 50px;\\n        }\\n        .form .field i {\\n          font-size: 18px;\\n          left: 0px;\\n          top: 0px;\\n          position: absolute;\\n          height: 44px;\\n          width: 44px;\\n          color: #f7f3eb;\\n          background: #676056;\\n          text-align: center;\\n          line-height: 44px;\\n          transition: all 0.3s ease-out;\\n          pointer-events: none;\\n        }\\n\\n        /* === Login styles === */\\n        .login {\\n          position: relative;\\n          margin: 100px auto;\\n          width: 370px;\\n          height: 315px;\\n          background: white;\\n          border-radius: 3px;\\n        }\\n        .login:before {\\n          content: \\\'\\\';\\n          position: absolute;\\n          top: -8px;\\n          right: -8px;\\n          bottom: -8px;\\n          left: -8px;\\n          z-index: -1;\\n          background: rgba(255, 255, 255, 0.1);\\n          border-radius: 4px;\\n        }\\n        .login h1 {\\n          line-height: 55px;\\n          font-size: 24px;\\n          font-weight: bold;\\n          font-family: \\\'Open Sans\\\', sans-serif;\\n          text-transform: uppercase;\\n          color: #fff;\\n          text-align: center;\\n          background: #1abc9c;\\n          border-top-left-radius: 3px;\\n          border-top-right-radius: 3px;\\n        }\\n        .login .submit {\\n          text-align: center;\\n        }\\n        .login p:first-child {\\n          margin-top: 30px;\\n        }\\n        .login p .remember {\\n          float: left;\\n        }\\n        .login p .remember label {\\n          color: #a7a599;\\n          font-size: 12px;\\n          cursor: pointer;\\n        }\\n        .login p .forgot {\\n          float: right;\\n          margin-right: 50px;\\n        }\\n        .login p .forgot a {\\n          color: #a7a599;\\n          font-size: 12px;\\n          text-decoration: none;\\n          font-style: italic;\\n          transition: all 0.3s ease-out;\\n        }\\n        .login p .forgot a:hover {\\n          color: #f2672e;\\n        }\\n\\n        /*input style*/\\n        /* === Input Form === */\\n        ::-webkit-input-placeholder {\\n          color: #ded9cf;\\n          font-family: \\\'Open Sans\\\';\\n        }\\n\\n        :-moz-placeholder {\\n          color: #ded9cf !important;\\n          font-family: \\\'Open Sans\\\';\\n        }\\n\\n        .form input[type=text], input[type=password] {\\n          font-family: \\\'Open Sans\\\', Calibri, Arial, sans-serif;\\n          font-size: 14px;\\n          font-weight: 400;\\n          padding: 10px 15px 10px 55px;\\n          position: relative;\\n          width: 200px;\\n          height: 24px;\\n          color: #676056;\\n          border: none;\\n          background: #f7f3eb;\\n          color: #777;\\n          transition: color 0.3s ease-out;\\n        }\\n\\n        .form input[type=text] {\\n          margin-bottom: 15px;\\n        }\\n\\n        .form input[type=text]:hover ~ i,\\n        .form input[type=password]:hover ~ i {\\n          color: #27ae60;\\n        }\\n\\n        .form input[type=text]:focus ~ i,\\n        .form input[type=password]:focus ~ i {\\n          color: #27ae60;\\n        }\\n\\n        .form input[type=text]:focus,\\n        .form input[type=password]:focus,\\n        .form button[type=submit]:focus {\\n          outline: none;\\n        }\\n\\n        .form input[type=submit] {\\n          margin-top: 15px;\\n          width: 270px;\\n          text-align: center;\\n          font-size: 14px;\\n          font-family: \\\'Open Sans\\\',sans-serif;\\n          font-weight: bold;\\n          padding: 12px 0;\\n          letter-spacing: 0;\\n          box-shadow: inset 0px 0px 0px 0px #1abc9c;\\n          color: #fff;\\n          background-color: #16a085;\\n          text-shadow: none;\\n          text-transform: uppercase;\\n          border: none;\\n          cursor: pointer;\\n          position: relative;\\n          margin-bottom: 20px;\\n          -webkit-animation: shadowFadeOut 0.4s;\\n          -moz-animation: shadowFadeOut 0.4s;\\n        }\\n\\n        .form input[type=submit]:hover, input[type=submit]:focus {\\n          color: #fff;\\n          box-shadow: inset 0px 46px 0px 0px #1abc9c;\\n          -webkit-animation: shadowFade 0.4s;\\n          -moz-animation: shadowFade 0.4s;\\n        }\\n\\n        /*keyframes for input animation*/\\n        @keyframes shadowFade {\\n          0% {\\n            box-shadow: inset 0px 0px 0px 0px #1abc9c;\\n            color: #fff;\\n          }\\n          100% {\\n            box-shadow: inset 0px 46px 0px 0px #1abc9c;\\n            color: #fff;\\n          }\\n        }\\n        @keyframes shadowFadeOut {\\n          0% {\\n            box-shadow: inset 0px 46px 0px 0px #1abc9c;\\n            color: #fff;\\n          }\\n          100% {\\n            box-shadow: inset 0px 0px 0px 0px #1abc9c;\\n            color: #fff;\\n          }\\n        }\\n        @-webkit-keyframes shadowFade {\\n          0% {\\n            box-shadow: inset 0px 0px 0px 0px #1abc9c;\\n            color: #fff;\\n          }\\n          100% {\\n            box-shadow: inset 0px 46px 0px 0px #1abc9c;\\n            color: #fff;\\n          }\\n        }\\n        @-webkit-keyframes shadowFadeOut {\\n          0% {\\n            box-shadow: inset 0px 46px 0px 0px #1abc9c;\\n            color: #fff;\\n          }\\n          100% {\\n            box-shadow: inset 0px 0px 0px 0px #1abc9c;\\n            color: #fff;\\n          }\\n        }\\n        @-moz-keyframes shadowFade {\\n          0% {\\n            box-shadow: inset 0px 0px 0px 0px #1abc9c;\\n            color: #fff;\\n          }\\n          100% {\\n            box-shadow: inset 0px 46px 0px 0px #1abc9c;\\n            color: #fff;\\n          }\\n        }\\n        @-moz-keyframes shadowFadeOut {\\n          0% {\\n            box-shadow: inset 0px 44px 0px 0px #1abc9c;\\n            color: #fff;\\n          }\\n          100% {\\n            box-shadow: inset 0px 0px 0px 0px #1abc9c;\\n            color: #fff;\\n          }\\n        }\\n        /*continued styling for input */\\n        .form input[type="checkbox"] {\\n          display: none;\\n        }\\n\\n        /*.form input[type="checkbox"] + label span {\\n            display:inline-block;\\n            width:16px;\\n            height:16px;\\n            margin: -2px 4px 0 50px;\\n            vertical-align:middle;\\n            background:url("../img/checkbox.png") left top no-repeat;\\n            cursor:pointer;\\n        }\\n        .form input[type="checkbox"]:checked + label span {\\n            background:url("../img/checkbox.png") -16px top no-repeat;\\n        }*/\\n        /* === Copyright === */\\n        .copyright {\\n          margin-top: 30px;\\n          text-align: center;\\n        }\\n        .copyright p, .copyright a {\\n          color: #828078;\\n          font-size: 12px;\\n          text-decoration: none;\\n          transition: color 0.3s ease-out;\\n        }\\n        .copyright p a:hover, .copyright a a:hover {\\n          color: #f2672e;\\n        }\\n    </style>\\n\\n  <script src="https://cdnjs.cloudflare.com/ajax/libs/prefixfree/1.0.7/prefixfree.min.js"></script>\\n\\n</head>\\n\\n<body>\\n  <div class="login">\\n    <h1>Login</h1>\\n\\n    \', escape=False)'
p93
sI2
S'response.write(form.custom.begin)'
p94
sI3
S"response.write('\\n    ', escape=False)"
p95
sI4
S'response.write(form.custom.widget.username)'
p96
sI5
S"response.write('\\n    ', escape=False)"
p97
sI6
S'response.write(form.custom.widget.password)'
p98
sI7
S"response.write(' \\n    ', escape=False)"
p99
sI8
S'response.write(form.custom.submit)'
p100
sI9
S"response.write('\\n    ', escape=False)"
p101
sI10
S'response.write(form.custom.end)'
p102
sI11
S'response.write(\'\\n\\n\\n  </div> <!--/ Login-->\\n\\n  <div class="copyright">\\n      <p>An\\xc3\\xa1lise de Vulnerabilidade em Redes Cabeada e Sem Fio</p>\\n\\n  </div>\\n\\n</body>\\n</html>\\n\\n\\n\', escape=False)'
p103
ssg83
S'()'
p104
sg85
S'<module>'
p105
sasS'pyver'
p106
S'Python 2.7.13: /usr/bin/python (prefix: /usr)'
p107
sS'session'
p108
g57
(S's\x1a\x00\x00\x00<div><table></table></div>'
tRp109
sS'etype'
p110
S"<type 'exceptions.NameError'>"
p111
sS'date'
p112
S'Fri Nov  3 19:03:50 2017'
p113
sS'response'
p114
g57
(S'sA\x17\x00\x00<div><table><tr><td style="font-weight:bold;vertical-align:top;">body</td><td style="vertical-align:top;">:</td><td><div>&lt;cStringIO.StringO object at 0x7f0b38065298&gt;</div></td></tr><tr><td style="font-weight:bold;vertical-align:top;">cookies</td><td style="vertical-align:top;">:</td><td><div><table><tr><td style="font-weight:bold;vertical-align:top;">session_id_tcc</td><td style="vertical-align:top;">:</td><td><div>127.0.0.1-05981b23-6924-4667-8d7f-da55bfe5f155<table><tr><td style="font-weight:bold;vertical-align:top;">comment</td><td style="vertical-align:top;">:</td><td><div></div></td></tr><tr><td style="font-weight:bold;vertical-align:top;">domain</td><td style="vertical-align:top;">:</td><td><div></div></td></tr><tr><td style="font-weight:bold;vertical-align:top;">expires</td><td style="vertical-align:top;">:</td><td><div></div></td></tr><tr><td style="font-weight:bold;vertical-align:top;">httponly</td><td style="vertical-align:top;">:</td><td><div></div></td></tr><tr><td style="font-weight:bold;vertical-align:top;">max-age</td><td style="vertical-align:top;">:</td><td><div></div></td></tr><tr><td style="font-weight:bold;vertical-align:top;">path</td><td style="vertical-align:top;">:</td><td><div>/</div></td></tr><tr><td style="font-weight:bold;vertical-align:top;">secure</td><td style="vertical-align:top;">:</td><td><div></div></td></tr><tr><td style="font-weight:bold;vertical-align:top;">version</td><td style="vertical-align:top;">:</td><td><div></div></td></tr></table></div></td></tr></table></div></td></tr><tr><td style="font-weight:bold;vertical-align:top;">delimiters</td><td style="vertical-align:top;">:</td><td><div><table><tr><td><div>{{</div></td></tr><tr><td><div>}}</div></td></tr></table></div></td></tr><tr><td style="font-weight:bold;vertical-align:top;">files</td><td style="vertical-align:top;">:</td><td><div><table></table></div></td></tr><tr><td style="font-weight:bold;vertical-align:top;">flash</td><td style="vertical-align:top;">:</td><td><div></div></td></tr><tr><td style="font-weight:bold;vertical-align:top;">form_label_separator</td><td style="vertical-align:top;">:</td><td><div>: </div></td></tr><tr><td style="font-weight:bold;vertical-align:top;">formstyle</td><td style="vertical-align:top;">:</td><td><div>table3cols</div></td></tr><tr><td style="font-weight:bold;vertical-align:top;">generic_patterns</td><td style="vertical-align:top;">:</td><td><div><table><tr><td><div>*</div></td></tr></table></div></td></tr><tr><td style="font-weight:bold;vertical-align:top;">headers</td><td style="vertical-align:top;">:</td><td><div><table><tr><td style="font-weight:bold;vertical-align:top;">X-Powered-By</td><td style="vertical-align:top;">:</td><td><div>web2py</div></td></tr></table></div></td></tr><tr><td style="font-weight:bold;vertical-align:top;">menu</td><td style="vertical-align:top;">:</td><td><div><table></table></div></td></tr><tr><td style="font-weight:bold;vertical-align:top;">meta</td><td style="vertical-align:top;">:</td><td><div><table></table></div></td></tr><tr><td style="font-weight:bold;vertical-align:top;">models_to_run</td><td style="vertical-align:top;">:</td><td><div><table><tr><td><div>^\\w+\\.py$</div></td></tr><tr><td><div>^control/\\w+\\.py$</div></td></tr><tr><td><div>^control/login/\\w+\\.py$</div></td></tr></table></div></td></tr><tr><td style="font-weight:bold;vertical-align:top;">postprocessing</td><td style="vertical-align:top;">:</td><td><div><table></table></div></td></tr><tr><td style="font-weight:bold;vertical-align:top;">session_client</td><td style="vertical-align:top;">:</td><td><div>127.0.0.1</div></td></tr><tr><td style="font-weight:bold;vertical-align:top;">session_cookie_compression_level</td><td style="vertical-align:top;">:</td><td><div>None</div></td></tr><tr><td style="font-weight:bold;vertical-align:top;">session_cookie_expires</td><td style="vertical-align:top;">:</td><td><div>None</div></td></tr><tr><td style="font-weight:bold;vertical-align:top;">session_data_name</td><td style="vertical-align:top;">:</td><td><div>session_data_tcc</div></td></tr><tr><td style="font-weight:bold;vertical-align:top;">session_file</td><td style="vertical-align:top;">:</td><td><div>&lt;open file &#x27;/var/www/web2py/applications/tcc/sessions/0b3/0cc/127.0.0.1-05981b23-6924-4667-8d7f-da55bfe5f155&#x27;, mode &#x27;rb+&#x27; at 0x7f0b2074d150&gt;</div></td></tr><tr><td style="font-weight:bold;vertical-align:top;">session_filename</td><td style="vertical-align:top;">:</td><td><div>/var/www/web2py/applications/tcc/sessions/127.0.0.1-05981b23-6924-4667-8d7f-da55bfe5f155</div></td></tr><tr><td style="font-weight:bold;vertical-align:top;">session_hash</td><td style="vertical-align:top;">:</td><td><div>6a300aef6e43be34cf8ef81766372f7e</div></td></tr><tr><td style="font-weight:bold;vertical-align:top;">session_id</td><td style="vertical-align:top;">:</td><td><div>127.0.0.1-05981b23-6924-4667-8d7f-da55bfe5f155</div></td></tr><tr><td style="font-weight:bold;vertical-align:top;">session_id_name</td><td style="vertical-align:top;">:</td><td><div>session_id_tcc</div></td></tr><tr><td style="font-weight:bold;vertical-align:top;">session_locked</td><td style="vertical-align:top;">:</td><td><div>True</div></td></tr><tr><td style="font-weight:bold;vertical-align:top;">session_masterapp</td><td style="vertical-align:top;">:</td><td><div>tcc</div></td></tr><tr><td style="font-weight:bold;vertical-align:top;">session_new</td><td style="vertical-align:top;">:</td><td><div>False</div></td></tr><tr><td style="font-weight:bold;vertical-align:top;">session_storage_type</td><td style="vertical-align:top;">:</td><td><div>file</div></td></tr><tr><td style="font-weight:bold;vertical-align:top;">status</td><td style="vertical-align:top;">:</td><td><div>200</div></td></tr><tr><td style="font-weight:bold;vertical-align:top;">view</td><td style="vertical-align:top;">:</td><td><div>estrutura/login.html</div></td></tr></table></div>'
tRp115
sS'locals'
p116
(dp117
S'OBJECT'
p118
S"<class 'gluon.html.OBJECT'>"
p119
sS'SQLDB'
p120
S"<class 'pydal.base.DAL'>"
p121
sg108
S"<Storage {'_formkey[login]': ['33cac1a2-b6cb-442...05640', '9229ff6f-eea4-438d-900c-374e30a48a05']}>"
p122
sS'LINK'
p123
S"<class 'gluon.html.LINK'>"
p124
sS'BR'
p125
S"<class 'gluon.html.BR'>"
p126
sS'local_import'
p127
S'<function <lambda>>'
p128
sS'OPTGROUP'
p129
S"<class 'gluon.html.OPTGROUP'>"
p130
sS'__package__'
p131
S'None'
p132
sS'PRE'
p133
S"<class 'gluon.html.PRE'>"
p134
sS'IS_INT_IN_RANGE'
p135
S"<class 'gluon.validators.IS_INT_IN_RANGE'>"
p136
sS'IS_LOWER'
p137
S"<class 'gluon.validators.IS_LOWER'>"
p138
sS'IS_STRONG'
p139
S"<class 'gluon.validators.IS_STRONG'>"
p140
sS'cache'
p141
S'<gluon.cache.Cache object>'
p142
sS'IS_IN_DB'
p143
S"<class 'gluon.validators.IS_IN_DB'>"
p144
sS'TAG'
p145
S'<gluon.html.__TAG__ object>'
p146
sS'SQLField'
p147
S"<class 'pydal.objects.Field'>"
p148
sS'BODY'
p149
S"<class 'gluon.html.BODY'>"
p150
sS'IS_DATE_IN_RANGE'
p151
S"<class 'gluon.validators.IS_DATE_IN_RANGE'>"
p152
sS'IFRAME'
p153
S"<class 'gluon.html.IFRAME'>"
p154
sS'URL'
p155
S'<function URL>'
p156
sS'__file__'
p157
S"'/var/www/web2py/applications/tcc/views/estrutura/login.html'"
p158
sS'db'
p159
S'<DAL uri="sqlite://Scans.db">'
p160
sS'auth'
p161
S'<gluon.tools.Auth object>'
p162
sS'P'
S"<class 'gluon.html.P'>"
p163
sS'TFOOT'
p164
S"<class 'gluon.html.TFOOT'>"
p165
sS'XHTML'
p166
S"<class 'gluon.html.XHTML'>"
p167
sS'ON'
p168
S'True'
p169
sS'OL'
p170
S"<class 'gluon.html.OL'>"
p171
sS'TEXTAREA'
p172
S"<class 'gluon.html.TEXTAREA'>"
p173
sS'MENU'
p174
S"<class 'gluon.html.MENU'>"
p175
sS'IS_IMAGE'
p176
S"<class 'gluon.validators.IS_IMAGE'>"
p177
sS'EM'
p178
S"<class 'gluon.html.EM'>"
p179
sS'CODE'
p180
S"<class 'gluon.html.CODE'>"
p181
sS'HTTP'
p182
S"<class 'gluon.http.HTTP'>"
p183
sS'HR'
p184
S"<class 'gluon.html.HR'>"
p185
sS'IS_DATETIME'
p186
S"<class 'gluon.validators.IS_DATETIME'>"
p187
sS'STYLE'
p188
S"<class 'gluon.html.STYLE'>"
p189
sS'LABEL'
p190
S"<class 'gluon.html.LABEL'>"
p191
sS'CLEANUP'
p192
S"<class 'gluon.validators.CLEANUP'>"
p193
sS'SELECT'
p194
S"<class 'gluon.html.SELECT'>"
p195
sS'CENTER'
p196
S"<class 'gluon.html.CENTER'>"
p197
sS'Auth'
p198
S"<class 'gluon.tools.Auth'>"
p199
sS'__builtins__'
p200
S"{'ArithmeticError': <type 'exceptions.ArithmeticError'>, 'AssertionError': <type 'exceptions.AssertionError'>, 'AttributeError': <type 'exceptions.AttributeError'>, 'BaseException': <type 'exceptions.BaseException'>, 'BufferError': <type 'exceptions.BufferError'>, 'BytesWarning': <type 'exceptions.BytesWarning'>, 'DeprecationWarning': <type 'exceptions.DeprecationWarning'>, 'EOFError': <type 'exceptions.EOFError'>, 'Ellipsis': Ellipsis, 'EnvironmentError': <type 'exceptions.EnvironmentError'>, ...}"
p201
sS'HTML'
p202
S"<class 'gluon.html.HTML'>"
p203
sS'SQLFORM'
p204
S"<class 'gluon.sqlhtml.SQLFORM'>"
p205
sS'LOAD'
p206
S'<function LOAD>'
p207
sS'redirect'
p208
S'<function redirect>'
p209
sS'FIELDSET'
p210
S"<class 'gluon.html.FIELDSET'>"
p211
sS'IS_EQUAL_TO'
p212
S"<class 'gluon.validators.IS_EQUAL_TO'>"
p213
sS'embed64'
p214
S'<function embed64>'
p215
sS'IS_LIST_OF'
p216
S"<class 'gluon.validators.IS_LIST_OF'>"
p217
sS'INPUT'
p218
S"<class 'gluon.html.INPUT'>"
p219
sS'EMBED'
p220
S"<class 'gluon.html.EMBED'>"
p221
sS'Scan'
p222
S'(<Table Scan (id, gatewayIp, interface, idTipoStatusScan, dataInicioScan)>,)'
p223
sS'H2'
p224
S"<class 'gluon.html.H2'>"
p225
sS'H3'
p226
S"<class 'gluon.html.H3'>"
p227
sS'BUTTON'
p228
S"<class 'gluon.html.BUTTON'>"
p229
sS'H1'
p230
S"<class 'gluon.html.H1'>"
p231
sS'H6'
p232
S"<class 'gluon.html.H6'>"
p233
sS'H4'
p234
S"<class 'gluon.html.H4'>"
p235
sS'H5'
p236
S"<class 'gluon.html.H5'>"
p237
sS'UL'
p238
S"<class 'gluon.html.UL'>"
p239
sS'IS_UPPER'
p240
S"<class 'gluon.validators.IS_UPPER'>"
p241
sS'xmlescape'
p242
S'<function xmlescape>'
p243
sS'login'
p244
S'<gluon.sqlhtml.SQLFORM object>'
p245
sS'IS_TIME'
p246
S"<class 'gluon.validators.IS_TIME'>"
p247
sS'TipoStatusScan'
p248
S'(<Table TipoStatusScan (id, nome)>,)'
p249
sS'OPTION'
p250
S"<class 'gluon.html.OPTION'>"
p251
sS'TITLE'
p252
S"<class 'gluon.html.TITLE'>"
p253
sS'CRYPT'
p254
S"<class 'gluon.validators.CRYPT'>"
p255
sS'IS_EMPTY_OR'
p256
S"<class 'gluon.validators.IS_EMPTY_OR'>"
p257
sS'MARKMIN'
p258
S"<class 'gluon.html.MARKMIN'>"
p259
sS'ScanDispositivoPorta'
p260
S'(<Table ScanDispositivoPorta (id, idScanDispositivo, porta, nome)>,)'
p261
sS'__name__'
p262
S"'__restricted__'"
p263
sS'STRONG'
p264
S"<class 'gluon.html.STRONG'>"
p265
sS'COL'
p266
S"<class 'gluon.html.COL'>"
p267
sS'SCRIPT'
p268
S"<class 'gluon.html.SCRIPT'>"
p269
sS'TABLE'
p270
S"<class 'gluon.html.TABLE'>"
p271
sS'IS_IPV4'
p272
S"<class 'gluon.validators.IS_IPV4'>"
p273
sS'IS_LENGTH'
p274
S"<class 'gluon.validators.IS_LENGTH'>"
p275
sS'IS_IPV6'
p276
S"<class 'gluon.validators.IS_IPV6'>"
p277
sS'XML'
p278
S"<class 'gluon.html.XML'>"
p279
sS'B'
S"<class 'gluon.html.B'>"
p280
sS'IMG'
p281
S"<class 'gluon.html.IMG'>"
p282
sS'SQLTABLE'
p283
S"<class 'gluon.sqlhtml.SQLTABLE'>"
p284
sS'IS_MATCH'
p285
S"<class 'gluon.validators.IS_MATCH'>"
p286
sS'IS_ALPHANUMERIC'
p287
S"<class 'gluon.validators.IS_ALPHANUMERIC'>"
p288
sS'SPAN'
p289
S"<class 'gluon.html.SPAN'>"
p290
sS'IS_JSON'
p291
S"<class 'gluon.validators.IS_JSON'>"
p292
sS'IS_IPADDRESS'
p293
S"<class 'gluon.validators.IS_IPADDRESS'>"
p294
sS'IS_SLUG'
p295
S"<class 'gluon.validators.IS_SLUG'>"
p296
sS'ScanDispositivo'
p297
S'(<Table ScanDispositivo (id, idScan, ip, mac, nomeFabricante, nomeOs)>,)'
p298
sS'BEAUTIFY'
p299
S"<class 'gluon.html.BEAUTIFY'>"
p300
sS'META'
p301
S"<class 'gluon.html.META'>"
p302
sS'IS_DATE'
p303
S"<class 'gluon.validators.IS_DATE'>"
p304
sS'IS_EMAIL'
p305
S"<class 'gluon.validators.IS_EMAIL'>"
p306
sS'IS_NOT_EMPTY'
p307
S"<class 'gluon.validators.IS_NOT_EMPTY'>"
p308
sS'IS_FLOAT_IN_RANGE'
p309
S"<class 'gluon.validators.IS_FLOAT_IN_RANGE'>"
p310
sS'TBODY'
p311
S"<class 'gluon.html.TBODY'>"
p312
sS'CAT'
p313
S"<class 'gluon.html.CAT'>"
p314
sS'Field'
p315
S"<class 'pydal.objects.Field'>"
p316
sS'IS_LIST_OF_EMAILS'
p317
S"<class 'gluon.validators.IS_LIST_OF_EMAILS'>"
p318
sS'DIV'
p319
S"<class 'gluon.html.DIV'>"
p320
sS'LEGEND'
p321
S"<class 'gluon.html.LEGEND'>"
p322
sS'COLGROUP'
p323
S"<class 'gluon.html.COLGROUP'>"
p324
sS'DAL'
p325
S"<class 'pydal.base.DAL'>"
p326
sS'ASSIGNJS'
p327
S'<function ASSIGNJS>'
p328
sS'TR'
p329
S"<class 'gluon.html.TR'>"
p330
sS'LI'
p331
S"<class 'gluon.html.LI'>"
p332
sS'TH'
p333
S"<class 'gluon.html.TH'>"
p334
sS'TD'
p335
S"<class 'gluon.html.TD'>"
p336
sS'IS_URL'
p337
S"<class 'gluon.validators.IS_URL'>"
p338
sS'A'
S"<class 'gluon.html.A'>"
p339
sS'HEAD'
p340
S"<class 'gluon.html.HEAD'>"
p341
sS'IS_DATETIME_IN_RANGE'
p342
S"<class 'gluon.validators.IS_DATETIME_IN_RANGE'>"
p343
sS'FORM'
p344
S"<class 'gluon.html.FORM'>"
p345
sS'Usuario'
p346
S'<Table Usuario (id, nome, senha)>'
p347
sS'I'
S"<class 'gluon.html.I'>"
p348
sS'IS_NOT_IN_DB'
p349
S"<class 'gluon.validators.IS_NOT_IN_DB'>"
p350
sg114
S"<Storage {'body': <cStringIO.StringO object at 0...0x7f0b205dfc80>, 'view': 'estrutura/login.html'}>"
p351
sS'THEAD'
p352
S"<class 'gluon.html.THEAD'>"
p353
sS'ANY_OF'
p354
S"<class 'gluon.validators.ANY_OF'>"
p355
sS'IS_NULL_OR'
p356
S"<class 'gluon.validators.IS_EMPTY_OR'>"
p357
sg56
S"<Storage {'_vars': <Storage {}>, 'function': 'lo..., 'folder': '/var/www/web2py/applications/tcc/'}>"
p358
sS'IS_EXPR'
p359
S"<class 'gluon.validators.IS_EXPR'>"
p360
sS'T'
S'<gluon.languages.translator object>'
p361
sS'IS_IN_SET'
p362
S"<class 'gluon.validators.IS_IN_SET'>"
p363
sS'IS_UPLOAD_FILENAME'
p364
S"<class 'gluon.validators.IS_UPLOAD_FILENAME'>"
p365
sS'TT'
p366
S"<class 'gluon.html.TT'>"
p367
sS'IS_DECIMAL_IN_RANGE'
p368
S"<class 'gluon.validators.IS_DECIMAL_IN_RANGE'>"
p369
sssS'traceback'
p370
S'Traceback (most recent call last):\n  File "/var/www/web2py/gluon/restricted.py", line 227, in restricted\n    exec ccode in environment\n  File "/var/www/web2py/applications/tcc/views/estrutura/login.html", line 2, in <module>\n    <html >\nNameError: name \'form\' is not defined\n'
p371
s.