(dp1
S'output'
p2
S"<class 'pysqlite2.dbapi2.OperationalError'> no such column: ScanDispositivoPorta.id"
p3
sS'layer'
p4
S'/var/www/web2py/applications/tcc/controllers/control.py'
p5
sS'code'
p6
S'# coding=utf-8\nimport commands\nimport itertools\nimport os\nimport platform\nimport re\nimport socket\nimport struct\n\n\ndef login(): ######## Tela Login ########\n    return response.render("estrutura/login.html")\n\ndef dash(): ######## Tela dashboard ########\n    ##qtde_os = qtde_so()\n    from subprocess import check_output\n    saida_ip_externo = commands.getoutput(\'sudo curl ifconfig.pro\')\n    ip_externo = saida_ip_externo.split("\\n")\n\n    ips = check_output([\'hostname\', \'--all-ip-addresses\'])\n\n    idScan = db(db.Scan).select()[-1].id\n\n    windows_disp = db((db.ScanDispositivo.nomeOs == "Windows") & (db.ScanDispositivo.idScan == idScan)).select().as_list()\n    count_windows = len(windows_disp)\n\n    linux_disp = db((db.ScanDispositivo.nomeOs == "Linux") & (db.ScanDispositivo.idScan == idScan)).select().as_list()\n    count_linux = len(linux_disp)\n\n    outros_disp = db((db.ScanDispositivo.nomeOs == "Outro") & (db.ScanDispositivo.idScan == idScan)).select().as_list()\n    count_outros = len(outros_disp)\n\n    dispositivos = windows_disp\n    dispositivos.append(linux_disp)\n    dispositivos.append(outros_disp)\n    portas = []\n\n    for disp in dispositivos:\n        for so in disp:\n            portas.append(db((db.ScanDispositivoPorta.idScanDispositivo == so[\'id\'])).select().as_list())\n\n\n    return response.render("estrutura/dash.html", ip_externo=ip_externo, ips=ips, count_windows=count_windows,\n                           count_linux=count_linux, count_outros=count_outros, idScan=dispositivos)\n\ndef relatorio(): ######## Tela Relat\xc3\xb3rio ########\n    return response.render("estrutura/relatorio.html")\n\n\ndef scan(): ######## Tela Scan onde \'starta\' os scans ########\n    return response.render(\'estrutura/scan.html\')\n\n\ndef settings(): ######## Tela de Configura\xc3\xa7\xc3\xb5es ########\n    ### Servi\xc3\xa7os - iniciar/parar/reiniciar ###\n    server = get_server()\n    saida_apache = commands.getoutput(\'sudo /etc/init.d/apache2 status\')\n    dict_apache = saida_apache.split("\\n")\n    retorno_apache = None\n    for line in dict_apache:\n        if \'running\' in line:\n            retorno_apache = \'Ativo\'\n            break\n        else:\n            retorno_apache = \'Inativo\'\n\n    saida_openvpn = commands.getoutput(\'sudo /etc/init.d/openvpn status\')\n    dict_openvpn = saida_openvpn.split("\\n")\n    retorno_openvpn = None\n    for line in dict_openvpn:\n        if \'inactive\' in line:\n            retorno_openvpn = \'Inativo\'\n            break\n        else:\n            retorno_openvpn = \'Ativo\'\n\n    saida_ssh = commands.getoutput(\'sudo /etc/init.d/ssh status\')\n    dict_ssh = saida_ssh.split("\\n")\n    retorno_ssh = None\n    for line in dict_ssh:\n        if \'inactive\' in line:\n            retorno_ssh = \'Inativo\'\n            break\n        else:\n            retorno_ssh = \'Ativo\'\n\n    ### Termina Servi\xc3\xa7os ###\n\n    ### Sistema Operacional ###\n    saida_os = commands.getoutput("lsb_release -a")\n    dict_os = saida_os.split("\\n")\n    dict_os1 = dict_os[1].split("\\t")\n    retorno_dict_os = dict_os1[1]\n\n    ### LOAD ###\n\n    saida_load = commands.getoutput("uptime")\n    dict_load = saida_load.split(":")\n    retorno_dict_load = dict_load[4]\n\n    return response.render(\'estrutura/settings.html\', retorno_apache=retorno_apache, dict_apache=dict_apache,\n                           dict_openvpn=dict_openvpn, retorno_openvpn=retorno_openvpn, retorno_ssh=retorno_ssh,\n                           dict_ssh=dict_ssh, server=server, retorno_dict_os=retorno_dict_os, retorno_dict_load=retorno_dict_load)\n\n############################\n\ndef iniciar_servico_apache():\n    try:\n        os.system(\'sudo /etc/init.d/apache2 start\')\n    except Exception as error:\n        return error\n\ndef parar_servico_apache():\n    try:\n        os.system(\'sudo /etc/init.d/apache2 stop\')\n    except Exception as error:\n        return error\n\n\ndef reiniciar_servico_apache():\n    try:\n        os.system(\'sudo /etc/init.d/apache2 restart\')\n    except Exception as error:\n        return error\n\n############################\n\ndef iniciar_servico_openvpn():\n    try:\n        os.system("sudo /etc/init.d/openvpn start")\n    except Exception as error:\n        return error\n\ndef parar_servico_openvpn():\n    try:\n        os.system("sudo /etc/init.d/openvpn stop")\n    except Exception as error:\n        return error\n\n\ndef reiniciar_servico_openvpn():\n    try:\n        os.system("sudo /etc/init.d/openvpn restart")\n    except Exception as error:\n        return error\n\n############################\n\ndef iniciar_servico_ssh():\n    try:\n        os.system("sudo /etc/init.d/ssh start")\n    except Exception as error:\n        return error\n\ndef parar_servico_ssh():\n    try:\n        os.system("sudo /etc/init.d/ssh stop")\n    except Exception as error:\n        return error\n\n\ndef reiniciar_servico_ssh():\n    try:\n        os.system("sudo /etc/init.d/ssh restart")\n    except Exception as error:\n        return error\n\n#######################################################################\n\ndef get_ip(): ### Fun\xc3\xa7\xc3\xa3o que retorna endere\xc3\xa7o ip das interfaces LAN/WLAN ###\n    global ip\n    f = os.popen(\'ifconfig\')\n    for iface in [\' \'.join(i) for i in iter(lambda: list(itertools.takewhile(lambda l: not l.isspace(),f)), [])]:\n        if re.findall(\'^(eth|wlan)[0-9]\',iface) and re.findall(\'RUNNING\',iface):\n            ip = re.findall(\'(?<=inet\\saddr:)[0-9\\.]+\',iface)\n            if ip:\n                return ip[0]\n    return ip\n\n\ndef gateway(): ### Retorna endere\xc3\xa7o IP do gateway ###\n    """Read the default gateway directly from /proc."""\n    with open("/proc/net/route") as fh:\n        for line in fh:\n            fields = line.strip().split()\n            if fields[1] != \'00000000\' or not int(fields[3], 16) & 2:\n                continue\n\n            return socket.inet_ntoa(struct.pack("<L", int(fields[2], 16)))\n\n\'\'\'Fun\xc3\xa7\xc3\xb5es Teste\nip_interno = commands.getoutput(\'sudo ifconfig eth1 | grep "inet\\ addr" | cut -d: -f2 | cut -d" " -f1\') \'\'\'\n\n\n#######################################################################\n\n\ndef qtde_host(): ######## Quantidade de host na rede, ir\xc3\xa1 retornar todos dispositivos que est\xc3\xa3o conectados ########\n    saida_host = commands.getoutput(\'sudo nmap -sP 192.168.100.0/24 | grep hosts\')\n    dict_host = saida_host.split(" ")\n\n    return dict_host[5]\n\n\ndef qtde_so(): ######## Retorna quantidade de Windows e Linux conectados \xc3\xa0 rede ########\n    qtde_os = {}\n    qtde_os[\'Windows\'] = commands.getoutput(\'sudo nmap --top-ports 1 -O -F -n -Pn -r 192.168.1.0/24 | grep "Running: "> /tmp/os; echo "$(cat /tmp/os | grep -i Windows | wc -l)"\')\n    qtde_os[\'Linux\'] = commands.getoutput(\'sudo nmap --top-ports 1 -O -F -n -Pn -r 192.168.1.0/24 | grep "Running: "> /tmp/os; echo "$(cat /tmp/os | grep -i Linux | wc -l)"\')\n\n    return str(qtde_os).replace(\'{\',\'\').replace(\'}\',\'\')\n\n\ndef get_server(): ######## Informa\xc3\xa7\xc3\xb5es de hardware/software da Raspberry ########\n    server = {}\n    #var = platform.platform()\n    #server[\'distribuicao\'] = var.split(\'-\')[6]\n    #server[\'versao\'] = var.split(\'-\')[7]\n    server[\'arch\'] = platform.processor()\n    server[\'host\'] = platform.uname()[1]\n    server[\'kernel\'] = platform.uname()[2]\n    server[\'pythonv\'] = platform.python_version()\n    server[\'memory\'] = int(commands.getoutput("cat /proc/meminfo | grep MemTotal").split(\':\')[1].split(\'k\')[0])/1000\n    disk = os.statvfs("/")\n    totalBytes = float(disk.f_bsize*disk.f_blocks)\n    server[\'disk\'] = "%.2f GBytes" % (totalBytes/1024/1024/1024)\n\n    #var = commands.getoutput("atop | grep cpu")\n    return server\n\n\n### Fun\xc3\xa7\xc3\xa3o para mostrar hora real time ###\ndef atualiza_hora():\n    from datetime import datetime\n    item = str(datetime.now().strftime(\'%H:%M:%S - %d/%m/%Y\'))\n\n    return item\n\nresponse._vars=response._caller(dash)\n'
p7
sS'snapshot'
p8
(dp9
S'exception'
p10
(dp11
S'__module__'
p12
S"'pysqlite2.dbapi2'"
p13
sS'__getslice__'
p14
S"<method-wrapper '__getslice__' of OperationalError object>"
p15
sS'__str__'
p16
S"<method-wrapper '__str__' of OperationalError object>"
p17
sS'__reduce__'
p18
S'<built-in method __reduce__ of OperationalError object>'
p19
sS'__dict__'
p20
S'{}'
p21
sS'__sizeof__'
p22
S'<built-in method __sizeof__ of OperationalError object>'
p23
sS'__weakref__'
p24
S'None'
p25
sS'__init__'
p26
S"<method-wrapper '__init__' of OperationalError object>"
p27
sS'__setattr__'
p28
S"<method-wrapper '__setattr__' of OperationalError object>"
p29
sS'__reduce_ex__'
p30
S'<built-in method __reduce_ex__ of OperationalError object>'
p31
sS'__new__'
p32
S'<built-in method __new__ of type object>'
p33
sS'__format__'
p34
S'<built-in method __format__ of OperationalError object>'
p35
sS'__class__'
p36
S"<class 'pysqlite2.dbapi2.OperationalError'>"
p37
sS'__doc__'
p38
S'None'
p39
sS'__getitem__'
p40
S"<method-wrapper '__getitem__' of OperationalError object>"
p41
sS'__setstate__'
p42
S'<built-in method __setstate__ of OperationalError object>'
p43
sS'__getattribute__'
p44
S"<method-wrapper '__getattribute__' of OperationalError object>"
p45
sS'args'
p46
S"('no such column: ScanDispositivoPorta.id',)"
p47
sS'__subclasshook__'
p48
S'<built-in method __subclasshook__ of type object>'
p49
sS'__unicode__'
p50
S'<built-in method __unicode__ of OperationalError object>'
p51
sS'__delattr__'
p52
S"<method-wrapper '__delattr__' of OperationalError object>"
p53
sS'__repr__'
p54
S"<method-wrapper '__repr__' of OperationalError object>"
p55
sS'__hash__'
p56
S"<method-wrapper '__hash__' of OperationalError object>"
p57
ssS'evalue'
p58
S'no such column: ScanDispositivoPorta.id'
p59
sS'request'
p60
cgluon.html
XML_unpickle
p61
(S's\xa1X\x00\x00<div><table><tr><td style="font-weight:bold;vertical-align:top;">ajax</td><td style="vertical-align:top;">:</td><td><div>False</div></td></tr><tr><td style="font-weight:bold;vertical-align:top;">application</td><td style="vertical-align:top;">:</td><td><div>tcc</div></td></tr><tr><td style="font-weight:bold;vertical-align:top;">args</td><td style="vertical-align:top;">:</td><td><div><table></table></div></td></tr><tr><td style="font-weight:bold;vertical-align:top;">cid</td><td style="vertical-align:top;">:</td><td><div>None</div></td></tr><tr><td style="font-weight:bold;vertical-align:top;">client</td><td style="vertical-align:top;">:</td><td><div>127.0.0.1</div></td></tr><tr><td style="font-weight:bold;vertical-align:top;">controller</td><td style="vertical-align:top;">:</td><td><div>control</div></td></tr><tr><td style="font-weight:bold;vertical-align:top;">cookies</td><td style="vertical-align:top;">:</td><td><div><table><tr><td style="font-weight:bold;vertical-align:top;">session_id_admin</td><td style="vertical-align:top;">:</td><td><div>127.0.0.1-37be75b3-7eb7-4964-ba77-2114d567caeb<table><tr><td style="font-weight:bold;vertical-align:top;">comment</td><td style="vertical-align:top;">:</td><td><div></div></td></tr><tr><td style="font-weight:bold;vertical-align:top;">domain</td><td style="vertical-align:top;">:</td><td><div></div></td></tr><tr><td style="font-weight:bold;vertical-align:top;">expires</td><td style="vertical-align:top;">:</td><td><div></div></td></tr><tr><td style="font-weight:bold;vertical-align:top;">httponly</td><td style="vertical-align:top;">:</td><td><div></div></td></tr><tr><td style="font-weight:bold;vertical-align:top;">max-age</td><td style="vertical-align:top;">:</td><td><div></div></td></tr><tr><td style="font-weight:bold;vertical-align:top;">path</td><td style="vertical-align:top;">:</td><td><div></div></td></tr><tr><td style="font-weight:bold;vertical-align:top;">secure</td><td style="vertical-align:top;">:</td><td><div></div></td></tr><tr><td style="font-weight:bold;vertical-align:top;">version</td><td style="vertical-align:top;">:</td><td><div></div></td></tr></table></div></td></tr><tr><td style="font-weight:bold;vertical-align:top;">session_id_tcc</td><td style="vertical-align:top;">:</td><td><div>127.0.0.1-23f8f7d6-d8d5-4de7-8e89-7c88f86f6079<table><tr><td style="font-weight:bold;vertical-align:top;">comment</td><td style="vertical-align:top;">:</td><td><div></div></td></tr><tr><td style="font-weight:bold;vertical-align:top;">domain</td><td style="vertical-align:top;">:</td><td><div></div></td></tr><tr><td style="font-weight:bold;vertical-align:top;">expires</td><td style="vertical-align:top;">:</td><td><div></div></td></tr><tr><td style="font-weight:bold;vertical-align:top;">httponly</td><td style="vertical-align:top;">:</td><td><div></div></td></tr><tr><td style="font-weight:bold;vertical-align:top;">max-age</td><td style="vertical-align:top;">:</td><td><div></div></td></tr><tr><td style="font-weight:bold;vertical-align:top;">path</td><td style="vertical-align:top;">:</td><td><div></div></td></tr><tr><td style="font-weight:bold;vertical-align:top;">secure</td><td style="vertical-align:top;">:</td><td><div></div></td></tr><tr><td style="font-weight:bold;vertical-align:top;">version</td><td style="vertical-align:top;">:</td><td><div></div></td></tr></table></div></td></tr><tr><td style="font-weight:bold;vertical-align:top;">session_id_welcome</td><td style="vertical-align:top;">:</td><td><div>127.0.0.1-fa80273e-9a58-4c92-bd1d-58f7e8240d43<table><tr><td style="font-weight:bold;vertical-align:top;">comment</td><td style="vertical-align:top;">:</td><td><div></div></td></tr><tr><td style="font-weight:bold;vertical-align:top;">domain</td><td style="vertical-align:top;">:</td><td><div></div></td></tr><tr><td style="font-weight:bold;vertical-align:top;">expires</td><td style="vertical-align:top;">:</td><td><div></div></td></tr><tr><td style="font-weight:bold;vertical-align:top;">httponly</td><td style="vertical-align:top;">:</td><td><div></div></td></tr><tr><td style="font-weight:bold;vertical-align:top;">max-age</td><td style="vertical-align:top;">:</td><td><div></div></td></tr><tr><td style="font-weight:bold;vertical-align:top;">path</td><td style="vertical-align:top;">:</td><td><div></div></td></tr><tr><td style="font-weight:bold;vertical-align:top;">secure</td><td style="vertical-align:top;">:</td><td><div></div></td></tr><tr><td style="font-weight:bold;vertical-align:top;">version</td><td style="vertical-align:top;">:</td><td><div></div></td></tr></table></div></td></tr></table></div></td></tr><tr><td style="font-weight:bold;vertical-align:top;">env</td><td style="vertical-align:top;">:</td><td><div><table><tr><td style="font-weight:bold;vertical-align:top;">HTTP_ACCEPT</td><td style="vertical-align:top;">:</td><td><div>text/html,application/xhtml+xml,application/xml;q=0.9,*/*;q=0.8</div></td></tr><tr><td style="font-weight:bold;vertical-align:top;">HTTP_ACCEPT_ENCODING</td><td style="vertical-align:top;">:</td><td><div>gzip, deflate</div></td></tr><tr><td style="font-weight:bold;vertical-align:top;">HTTP_ACCEPT_LANGUAGE</td><td style="vertical-align:top;">:</td><td><div>en-US,en;q=0.5</div></td></tr><tr><td style="font-weight:bold;vertical-align:top;">HTTP_CACHE_CONTROL</td><td style="vertical-align:top;">:</td><td><div>max-age=0</div></td></tr><tr><td style="font-weight:bold;vertical-align:top;">HTTP_CONNECTION</td><td style="vertical-align:top;">:</td><td><div>keep-alive</div></td></tr><tr><td style="font-weight:bold;vertical-align:top;">HTTP_COOKIE</td><td style="vertical-align:top;">:</td><td><div>session_id_welcome=127.0.0.1-fa80273e-9a58-4c92-bd1d-58f7e8240d43; session_id_tcc=127.0.0.1-23f8f7d6-d8d5-4de7-8e89-7c88f86f6079; session_id_admin=127.0.0.1-37be75b3-7eb7-4964-ba77-2114d567caeb</div></td></tr><tr><td style="font-weight:bold;vertical-align:top;">HTTP_HOST</td><td style="vertical-align:top;">:</td><td><div>127.0.0.1:8000</div></td></tr><tr><td style="font-weight:bold;vertical-align:top;">HTTP_USER_AGENT</td><td style="vertical-align:top;">:</td><td><div>Mozilla/5.0 (X11; Linux x86_64; rv:45.0) Gecko/20100101 Firefox/45.0</div></td></tr><tr><td style="font-weight:bold;vertical-align:top;">PATH_INFO</td><td style="vertical-align:top;">:</td><td><div>/tcc/control/dash</div></td></tr><tr><td style="font-weight:bold;vertical-align:top;">QUERY_STRING</td><td style="vertical-align:top;">:</td><td><div></div></td></tr><tr><td style="font-weight:bold;vertical-align:top;">REMOTE_ADDR</td><td style="vertical-align:top;">:</td><td><div>127.0.0.1</div></td></tr><tr><td style="font-weight:bold;vertical-align:top;">REMOTE_PORT</td><td style="vertical-align:top;">:</td><td><div>44910</div></td></tr><tr><td style="font-weight:bold;vertical-align:top;">REQUEST_METHOD</td><td style="vertical-align:top;">:</td><td><div>GET</div></td></tr><tr><td style="font-weight:bold;vertical-align:top;">SCRIPT_NAME</td><td style="vertical-align:top;">:</td><td><div></div></td></tr><tr><td style="font-weight:bold;vertical-align:top;">SERVER_NAME</td><td style="vertical-align:top;">:</td><td><div>kali</div></td></tr><tr><td style="font-weight:bold;vertical-align:top;">SERVER_PORT</td><td style="vertical-align:top;">:</td><td><div>8000</div></td></tr><tr><td style="font-weight:bold;vertical-align:top;">SERVER_PROTOCOL</td><td style="vertical-align:top;">:</td><td><div>HTTP/1.1</div></td></tr><tr><td style="font-weight:bold;vertical-align:top;">SERVER_SOFTWARE</td><td style="vertical-align:top;">:</td><td><div>Rocket 1.2.6</div></td></tr><tr><td style="font-weight:bold;vertical-align:top;">app_folders</td><td style="vertical-align:top;">:</td><td><div>set([&#x27;/var/www/web2py/applications/welcome/&#x27;, &#x27;/var/www/web2py/applications/tcc/&#x27;, &#x27;/var/www/web2py/applications/admin/&#x27;])</div></td></tr><tr><td style="font-weight:bold;vertical-align:top;">applications_parent</td><td style="vertical-align:top;">:</td><td><div>/var/www/web2py</div></td></tr><tr><td style="font-weight:bold;vertical-align:top;">cmd_args</td><td style="vertical-align:top;">:</td><td><div><table></table></div></td></tr><tr><td style="font-weight:bold;vertical-align:top;">cmd_options</td><td style="vertical-align:top;">:</td><td><div>&lt;Values at 0x7f0e6cd92320: {&#x27;verbose&#x27;: False, &#x27;ip&#x27;: &#x27;127.0.0.1&#x27;, &#x27;debuglevel&#x27;: 30, &#x27;with_scheduler&#x27;: False, &#x27;shutdown_timeout&#x27;: 5, &#x27;taskbar&#x27;: False, &#x27;with_coverage&#x27;: False, &#x27;pid_filename&#x27;: &#x27;httpserver.pid&#x27;, &#x27;maxthreads&#x27;: None, &#x27;softcron&#x27;: False, &#x27;server_name&#x27;: &#x27;kali&#x27;, &#x27;bpython&#x27;: False, &#x27;nogui&#x27;: False, &#x27;port&#x27;: 8000, &#x27;print_errors&#x27;: False, &#x27;extcron&#x27;: False, &#x27;runcron&#x27;: False, &#x27;run_system_tests&#x27;: False, &#x27;test&#x27;: None, &#x27;folder&#x27;: &#x27;/var/www/web2py&#x27;, &#x27;config&#x27;: &#x27;&#x27;, &#x27;minthreads&#x27;: None, &#x27;shell&#x27;: None, &#x27;run&#x27;: &#x27;&#x27;, &#x27;log_filename&#x27;: &#x27;httpserver.log&#x27;, &#x27;profiler_dir&#x27;: None, &#x27;args&#x27;: [&#x27;&#x27;], &#x27;socket_timeout&#x27;: 5, &#x27;ssl_ca_certificate&#x27;: None, &#x27;scheduler&#x27;: None, &#x27;interfaces&#x27;: None, &#x27;ssl_private_key&#x27;: &#x27;&#x27;, &#x27;gae&#x27;: None, &#x27;password&#x27;: &#x27;******&#x27;, &#x27;request_queue_size&#x27;: 5, &#x27;ssl_certificate&#x27;: &#x27;&#x27;, &#x27;cronjob&#x27;: False, &#x27;numthreads&#x27;: None, &#x27;quiet&#x27;: False, &#x27;import_models&#x27;: False, &#x27;timeout&#x27;: 10, &#x27;plain&#x27;: False, &#x27;nobanner&#x27;: False}&gt;</div></td></tr><tr><td style="font-weight:bold;vertical-align:top;">db_sessions</td><td style="vertical-align:top;">:</td><td><div>set([])</div></td></tr><tr><td style="font-weight:bold;vertical-align:top;">debugging</td><td style="vertical-align:top;">:</td><td><div>False</div></td></tr><tr><td style="font-weight:bold;vertical-align:top;">gluon_parent</td><td style="vertical-align:top;">:</td><td><div>/var/www/web2py</div></td></tr><tr><td style="font-weight:bold;vertical-align:top;">http_accept</td><td style="vertical-align:top;">:</td><td><div>text/html,application/xhtml+xml,application/xml;q=0.9,*/*;q=0.8</div></td></tr><tr><td style="font-weight:bold;vertical-align:top;">http_accept_encoding</td><td style="vertical-align:top;">:</td><td><div>gzip, deflate</div></td></tr><tr><td style="font-weight:bold;vertical-align:top;">http_accept_language</td><td style="vertical-align:top;">:</td><td><div>en-US,en;q=0.5</div></td></tr><tr><td style="font-weight:bold;vertical-align:top;">http_cache_control</td><td style="vertical-align:top;">:</td><td><div>max-age=0</div></td></tr><tr><td style="font-weight:bold;vertical-align:top;">http_connection</td><td style="vertical-align:top;">:</td><td><div>keep-alive</div></td></tr><tr><td style="font-weight:bold;vertical-align:top;">http_cookie</td><td style="vertical-align:top;">:</td><td><div>session_id_welcome=127.0.0.1-fa80273e-9a58-4c92-bd1d-58f7e8240d43; session_id_tcc=127.0.0.1-23f8f7d6-d8d5-4de7-8e89-7c88f86f6079; session_id_admin=127.0.0.1-37be75b3-7eb7-4964-ba77-2114d567caeb</div></td></tr><tr><td style="font-weight:bold;vertical-align:top;">http_host</td><td style="vertical-align:top;">:</td><td><div>127.0.0.1:8000</div></td></tr><tr><td style="font-weight:bold;vertical-align:top;">http_user_agent</td><td style="vertical-align:top;">:</td><td><div>Mozilla/5.0 (X11; Linux x86_64; rv:45.0) Gecko/20100101 Firefox/45.0</div></td></tr><tr><td style="font-weight:bold;vertical-align:top;">is_jython</td><td style="vertical-align:top;">:</td><td><div>False</div></td></tr><tr><td style="font-weight:bold;vertical-align:top;">is_pypy</td><td style="vertical-align:top;">:</td><td><div>False</div></td></tr><tr><td style="font-weight:bold;vertical-align:top;">is_source</td><td style="vertical-align:top;">:</td><td><div>True</div></td></tr><tr><td style="font-weight:bold;vertical-align:top;">local_hosts</td><td style="vertical-align:top;">:</td><td><div><table><tr><td><div>kali</div></td></tr><tr><td><div>::1</div></td></tr><tr><td><div>127.0.1.1</div></td></tr><tr><td><div>::ffff:127.0.0.1</div></td></tr><tr><td><div>127.0.0.1</div></td></tr></table></div></td></tr><tr><td style="font-weight:bold;vertical-align:top;">path_info</td><td style="vertical-align:top;">:</td><td><div>/tcc/control/dash</div></td></tr><tr><td style="font-weight:bold;vertical-align:top;">query_string</td><td style="vertical-align:top;">:</td><td><div></div></td></tr><tr><td style="font-weight:bold;vertical-align:top;">remote_addr</td><td style="vertical-align:top;">:</td><td><div>127.0.0.1</div></td></tr><tr><td style="font-weight:bold;vertical-align:top;">remote_port</td><td style="vertical-align:top;">:</td><td><div>44910</div></td></tr><tr><td style="font-weight:bold;vertical-align:top;">request_method</td><td style="vertical-align:top;">:</td><td><div>GET</div></td></tr><tr><td style="font-weight:bold;vertical-align:top;">request_uri</td><td style="vertical-align:top;">:</td><td><div>/tcc/control/dash</div></td></tr><tr><td style="font-weight:bold;vertical-align:top;">script_name</td><td style="vertical-align:top;">:</td><td><div></div></td></tr><tr><td style="font-weight:bold;vertical-align:top;">server_name</td><td style="vertical-align:top;">:</td><td><div>kali</div></td></tr><tr><td style="font-weight:bold;vertical-align:top;">server_port</td><td style="vertical-align:top;">:</td><td><div>8000</div></td></tr><tr><td style="font-weight:bold;vertical-align:top;">server_protocol</td><td style="vertical-align:top;">:</td><td><div>HTTP/1.1</div></td></tr><tr><td style="font-weight:bold;vertical-align:top;">server_software</td><td style="vertical-align:top;">:</td><td><div>Rocket 1.2.6</div></td></tr><tr><td style="font-weight:bold;vertical-align:top;">web2py_path</td><td style="vertical-align:top;">:</td><td><div>/var/www/web2py</div></td></tr><tr><td style="font-weight:bold;vertical-align:top;">web2py_version</td><td style="vertical-align:top;">:</td><td><div>2.14.6-stable+timestamp.2016.05.10.00.21.47</div></td></tr><tr><td style="font-weight:bold;vertical-align:top;">wsgi.errors</td><td style="vertical-align:top;">:</td><td><div>&lt;open file &#x27;&lt;stderr&gt;&#x27;, mode &#x27;w&#x27; at 0x7f0e6eafa1e0&gt;</div></td></tr><tr><td style="font-weight:bold;vertical-align:top;">wsgi.file_wrapper</td><td style="vertical-align:top;">:</td><td><div>&lt;class wsgiref.util.FileWrapper at 0x7f0e6324e7a0&gt;</div></td></tr><tr><td style="font-weight:bold;vertical-align:top;">wsgi.input</td><td style="vertical-align:top;">:</td><td><div>&lt;socket._fileobject object at 0x7f0e1679dc50&gt;</div></td></tr><tr><td style="font-weight:bold;vertical-align:top;">wsgi.multiprocess</td><td style="vertical-align:top;">:</td><td><div>False</div></td></tr><tr><td style="font-weight:bold;vertical-align:top;">wsgi.multithread</td><td style="vertical-align:top;">:</td><td><div>True</div></td></tr><tr><td style="font-weight:bold;vertical-align:top;">wsgi.run_once</td><td style="vertical-align:top;">:</td><td><div>False</div></td></tr><tr><td style="font-weight:bold;vertical-align:top;">wsgi.url_scheme</td><td style="vertical-align:top;">:</td><td><div>http</div></td></tr><tr><td style="font-weight:bold;vertical-align:top;">wsgi.version</td><td style="vertical-align:top;">:</td><td><div><table><tr><td><div>1</div></td></tr><tr><td><div>0</div></td></tr></table></div></td></tr><tr><td style="font-weight:bold;vertical-align:top;">wsgi_errors</td><td style="vertical-align:top;">:</td><td><div>&lt;open file &#x27;&lt;stderr&gt;&#x27;, mode &#x27;w&#x27; at 0x7f0e6eafa1e0&gt;</div></td></tr><tr><td style="font-weight:bold;vertical-align:top;">wsgi_file_wrapper</td><td style="vertical-align:top;">:</td><td><div>&lt;class wsgiref.util.FileWrapper at 0x7f0e6324e7a0&gt;</div></td></tr><tr><td style="font-weight:bold;vertical-align:top;">wsgi_input</td><td style="vertical-align:top;">:</td><td><div>&lt;socket._fileobject object at 0x7f0e1679dc50&gt;</div></td></tr><tr><td style="font-weight:bold;vertical-align:top;">wsgi_multiprocess</td><td style="vertical-align:top;">:</td><td><div>False</div></td></tr><tr><td style="font-weight:bold;vertical-align:top;">wsgi_multithread</td><td style="vertical-align:top;">:</td><td><div>True</div></td></tr><tr><td style="font-weight:bold;vertical-align:top;">wsgi_run_once</td><td style="vertical-align:top;">:</td><td><div>False</div></td></tr><tr><td style="font-weight:bold;vertical-align:top;">wsgi_url_scheme</td><td style="vertical-align:top;">:</td><td><div>http</div></td></tr><tr><td style="font-weight:bold;vertical-align:top;">wsgi_version</td><td style="vertical-align:top;">:</td><td><div><table><tr><td><div>1</div></td></tr><tr><td><div>0</div></td></tr></table></div></td></tr></table></div></td></tr><tr><td style="font-weight:bold;vertical-align:top;">extension</td><td style="vertical-align:top;">:</td><td><div>html</div></td></tr><tr><td style="font-weight:bold;vertical-align:top;">folder</td><td style="vertical-align:top;">:</td><td><div>/var/www/web2py/applications/tcc/</div></td></tr><tr><td style="font-weight:bold;vertical-align:top;">function</td><td style="vertical-align:top;">:</td><td><div>dash</div></td></tr><tr><td style="font-weight:bold;vertical-align:top;">global_settings</td><td style="vertical-align:top;">:</td><td><div><table><tr><td style="font-weight:bold;vertical-align:top;">app_folders</td><td style="vertical-align:top;">:</td><td><div>set([&#x27;/var/www/web2py/applications/welcome/&#x27;, &#x27;/var/www/web2py/applications/tcc/&#x27;, &#x27;/var/www/web2py/applications/admin/&#x27;])</div></td></tr><tr><td style="font-weight:bold;vertical-align:top;">applications_parent</td><td style="vertical-align:top;">:</td><td><div>/var/www/web2py</div></td></tr><tr><td style="font-weight:bold;vertical-align:top;">cmd_args</td><td style="vertical-align:top;">:</td><td><div><table></table></div></td></tr><tr><td style="font-weight:bold;vertical-align:top;">cmd_options</td><td style="vertical-align:top;">:</td><td><div>&lt;Values at 0x7f0e6cd92320: {&#x27;verbose&#x27;: False, &#x27;ip&#x27;: &#x27;127.0.0.1&#x27;, &#x27;debuglevel&#x27;: 30, &#x27;with_scheduler&#x27;: False, &#x27;shutdown_timeout&#x27;: 5, &#x27;taskbar&#x27;: False, &#x27;with_coverage&#x27;: False, &#x27;pid_filename&#x27;: &#x27;httpserver.pid&#x27;, &#x27;maxthreads&#x27;: None, &#x27;softcron&#x27;: False, &#x27;server_name&#x27;: &#x27;kali&#x27;, &#x27;bpython&#x27;: False, &#x27;nogui&#x27;: False, &#x27;port&#x27;: 8000, &#x27;print_errors&#x27;: False, &#x27;extcron&#x27;: False, &#x27;runcron&#x27;: False, &#x27;run_system_tests&#x27;: False, &#x27;test&#x27;: None, &#x27;folder&#x27;: &#x27;/var/www/web2py&#x27;, &#x27;config&#x27;: &#x27;&#x27;, &#x27;minthreads&#x27;: None, &#x27;shell&#x27;: None, &#x27;run&#x27;: &#x27;&#x27;, &#x27;log_filename&#x27;: &#x27;httpserver.log&#x27;, &#x27;profiler_dir&#x27;: None, &#x27;args&#x27;: [&#x27;&#x27;], &#x27;socket_timeout&#x27;: 5, &#x27;ssl_ca_certificate&#x27;: None, &#x27;scheduler&#x27;: None, &#x27;interfaces&#x27;: None, &#x27;ssl_private_key&#x27;: &#x27;&#x27;, &#x27;gae&#x27;: None, &#x27;password&#x27;: &#x27;******&#x27;, &#x27;request_queue_size&#x27;: 5, &#x27;ssl_certificate&#x27;: &#x27;&#x27;, &#x27;cronjob&#x27;: False, &#x27;numthreads&#x27;: None, &#x27;quiet&#x27;: False, &#x27;import_models&#x27;: False, &#x27;timeout&#x27;: 10, &#x27;plain&#x27;: False, &#x27;nobanner&#x27;: False}&gt;</div></td></tr><tr><td style="font-weight:bold;vertical-align:top;">db_sessions</td><td style="vertical-align:top;">:</td><td><div>set([])</div></td></tr><tr><td style="font-weight:bold;vertical-align:top;">debugging</td><td style="vertical-align:top;">:</td><td><div>False</div></td></tr><tr><td style="font-weight:bold;vertical-align:top;">gluon_parent</td><td style="vertical-align:top;">:</td><td><div>/var/www/web2py</div></td></tr><tr><td style="font-weight:bold;vertical-align:top;">is_jython</td><td style="vertical-align:top;">:</td><td><div>False</div></td></tr><tr><td style="font-weight:bold;vertical-align:top;">is_pypy</td><td style="vertical-align:top;">:</td><td><div>False</div></td></tr><tr><td style="font-weight:bold;vertical-align:top;">is_source</td><td style="vertical-align:top;">:</td><td><div>True</div></td></tr><tr><td style="font-weight:bold;vertical-align:top;">local_hosts</td><td style="vertical-align:top;">:</td><td><div><table><tr><td><div>kali</div></td></tr><tr><td><div>::1</div></td></tr><tr><td><div>127.0.1.1</div></td></tr><tr><td><div>::ffff:127.0.0.1</div></td></tr><tr><td><div>127.0.0.1</div></td></tr></table></div></td></tr><tr><td style="font-weight:bold;vertical-align:top;">web2py_version</td><td style="vertical-align:top;">:</td><td><div>2.14.6-stable+timestamp.2016.05.10.00.21.47</div></td></tr></table></div></td></tr><tr><td style="font-weight:bold;vertical-align:top;">is_https</td><td style="vertical-align:top;">:</td><td><div>False</div></td></tr><tr><td style="font-weight:bold;vertical-align:top;">is_local</td><td style="vertical-align:top;">:</td><td><div>True</div></td></tr><tr><td style="font-weight:bold;vertical-align:top;">is_restful</td><td style="vertical-align:top;">:</td><td><div>False</div></td></tr><tr><td style="font-weight:bold;vertical-align:top;">is_scheduler</td><td style="vertical-align:top;">:</td><td><div>False</div></td></tr><tr><td style="font-weight:bold;vertical-align:top;">is_shell</td><td style="vertical-align:top;">:</td><td><div>False</div></td></tr><tr><td style="font-weight:bold;vertical-align:top;">now</td><td style="vertical-align:top;">:</td><td><div>datetime.datetime(2017, 8, 29, 20, 44, 30, 591727)</div></td></tr><tr><td style="font-weight:bold;vertical-align:top;">raw_args</td><td style="vertical-align:top;">:</td><td><div></div></td></tr><tr><td style="font-weight:bold;vertical-align:top;">raw_extension</td><td style="vertical-align:top;">:</td><td><div>None</div></td></tr><tr><td style="font-weight:bold;vertical-align:top;">url</td><td style="vertical-align:top;">:</td><td><div>/tcc/control/dash</div></td></tr><tr><td style="font-weight:bold;vertical-align:top;">utcnow</td><td style="vertical-align:top;">:</td><td><div>datetime.datetime(2017, 8, 30, 0, 44, 30, 593043)</div></td></tr><tr><td style="font-weight:bold;vertical-align:top;">wsgi</td><td style="vertical-align:top;">:</td><td><div>&lt;gluon.main.LazyWSGI object at 0x7f0e16b23210&gt;</div></td></tr></table></div>'
tRp62
sS'frames'
p63
(lp64
(dp65
S'file'
p66
S'/var/www/web2py/gluon/restricted.py'
p67
sS'dump'
p68
(dp69
S'environment'
p70
S"{'A': <class 'gluon.html.A'>, 'ANY_OF': <class 'gluon.validators.ANY_OF'>, 'ASSIGNJS': <function ASSIGNJS>, 'Auth': <class 'gluon.tools.Auth'>, 'B': <class 'gluon.html.B'>, 'BEAUTIFY': <class 'gluon.html.BEAUTIFY'>, 'BODY': <class 'gluon.html.BODY'>, 'BR': <class 'gluon.html.BR'>, 'BUTTON': <class 'gluon.html.BUTTON'>, 'CAT': <class 'gluon.html.CAT'>, ...}"
p71
sS'ccode'
p72
S'<code object <module> at 0x7f0e16aaae30, file "/...applications/tcc/controllers/control.py", line 2>'
p73
ssS'lnum'
p74
I227
sS'lines'
p75
(dp76
I224
S'            ccode = code'
p77
sI225
S'        else:'
p78
sI226
S'            ccode = compile2(code, layer)'
p79
sI227
S'        exec ccode in environment'
p80
sI228
S'    except HTTP:'
p81
sI229
S'        raise'
p82
sI230
S'    except RestrictedError:'
p83
sI231
S'        # do not encapsulate (obfuscate) the original RestrictedError'
p84
sI222
S'    try:'
p85
sI223
S'        if isinstance(code, types.CodeType):'
p86
ssS'call'
p87
S"(code='# coding=utf-8\\nimport commands\\nimport itertools\\n...turn item\\n\\nresponse._vars=response._caller(dash)\\n', environment={'A': <class 'gluon.html.A'>, 'ANY_OF': <class 'gluon.validators.ANY_OF'>, 'ASSIGNJS': <function ASSIGNJS>, 'Auth': <class 'gluon.tools.Auth'>, 'B': <class 'gluon.html.B'>, 'BEAUTIFY': <class 'gluon.html.BEAUTIFY'>, 'BODY': <class 'gluon.html.BODY'>, 'BR': <class 'gluon.html.BR'>, 'BUTTON': <class 'gluon.html.BUTTON'>, 'CAT': <class 'gluon.html.CAT'>, ...}, layer='/var/www/web2py/applications/tcc/controllers/control.py')"
p88
sS'func'
p89
S'restricted'
p90
sa(dp91
g66
S'/var/www/web2py/applications/tcc/controllers/control.py'
p92
sg68
(dp93
sg74
I238
sg75
(dp94
I227
S'    #var = commands.getoutput("atop | grep cpu")'
p95
sI228
S'    return server'
p96
sI229
S''
sI230
S''
sI231
S'### Fun\xc3\xa7\xc3\xa3o para mostrar hora real time ###'
p97
sI232
S'def atualiza_hora():'
p98
sI233
S'    from datetime import datetime'
p99
sI234
S"    item = str(datetime.now().strftime('%H:%M:%S - %d/%m/%Y'))"
p100
sI235
S''
sI236
S'    return item'
p101
ssg87
S'()'
p102
sg89
S'<module>'
p103
sa(dp104
g66
S'/var/www/web2py/gluon/globals.py'
p105
sg68
(dp106
S'self'
p107
S'undefined'
p108
sS'f'
S'<function dash>'
p109
ssg74
I417
sg75
(dp110
I416
S'        self._vars = None'
p111
sI417
S'        self._caller = lambda f: f()'
p112
sI418
S'        self._view_environment = None'
p113
sI419
S'        self._custom_commit = None'
p114
sI420
S'        self._custom_rollback = None'
p115
sI421
S"        self.generic_patterns = ['*']"
p116
sI412
S"        self.flash = ''            # used by the default view layout"
p117
sI413
S'        self.meta = Storage()      # used by web2py_ajax.html'
p118
sI414
S'        self.menu = []             # used by the default view layout'
p119
sI415
S'        self.files = []            # used by web2py_ajax.html'
p120
ssg87
S'(f=<function dash>)'
p121
sg89
S'<lambda>'
p122
sa(dp123
g66
S'/var/www/web2py/applications/tcc/controllers/control.py'
p124
sg68
(dp125
S'db.ScanDispositivoPorta.idScanDispositivo'
p126
S'<pydal.objects.Field object>'
p127
sS'portas'
p128
S'[]'
p129
sS').select'
p130
g108
sS'portas.append'
p131
S'<built-in method append of list object>'
p132
sS'global db'
p133
S'<DAL uri="sqlite://Scans.db">'
p134
sS'so'
p135
S"{'id': 11L, 'idScan': 10L, 'ip': '172.16.0.1', 'mac': '90:F6:52:EF:52:8A', 'nomeFabricante': 'Tp-link Technologies', 'nomeOs': 'Linux'}"
p136
sS'db.ScanDispositivoPorta'
p137
S'<Table ScanDispositivoPorta (id, idScanDispositivo, porta, nome)>'
p138
ssg74
I40
sg75
(dp139
I35
S'    dispositivos.append(outros_disp)'
p140
sI36
S'    portas = []'
p141
sI37
S''
sI38
S'    for disp in dispositivos:'
p142
sI39
S'        for so in disp:'
p143
sI40
S"            portas.append(db((db.ScanDispositivoPorta.idScanDispositivo == so['id'])).select().as_list())"
p144
sI41
S''
sI42
S''
sI43
S'    return response.render("estrutura/dash.html", ip_externo=ip_externo, ips=ips, count_windows=count_windows,'
p145
sI44
S'                           count_linux=count_linux, count_outros=count_outros, idScan=dispositivos)'
p146
ssg87
S'()'
p147
sg89
S'dash'
p148
sa(dp149
g66
S'/var/www/web2py/gluon/packages/dal/pydal/objects.py'
p150
sg68
(dp151
S'self.query'
p152
S'<Query (ScanDispositivoPorta.idScanDispositivo = 11)>'
p153
sS'adapter.select'
p154
S'<bound method SQLiteAdapter.select of <pydal.adapters.sqlite.SQLiteAdapter object>>'
p155
sS'fields'
p156
S'[<pydal.objects.Field object>, <pydal.objects.Field object>, <pydal.objects.Field object>, <pydal.objects.Field object>]'
p157
sS'adapter'
p158
S'<pydal.adapters.sqlite.SQLiteAdapter object>'
p159
sS'attributes'
p160
g21
sS'self'
p161
S'<Set (ScanDispositivoPorta.idScanDispositivo = 11)>'
p162
ssg74
I2020
sg75
(dp163
I2016
S"                                    attributes.get('left', None),"
p164
sI2017
S"                                    attributes.get('orderby', None),"
p165
sI2018
S"                                    attributes.get('groupby', None))"
p166
sI2019
S'        fields = adapter.expand_all(fields, tablenames)'
p167
sI2020
S'        return adapter.select(self.query, fields, attributes)'
p168
sI2021
S''
sI2022
S'    def iterselect(self, *fields, **attributes):'
p169
sI2023
S'        adapter = self.db._adapter'
p170
sI2024
S'        tablenames = adapter.tables(self.query,'
p171
sI2015
S"                                    attributes.get('join', None),"
p172
ssg87
S'(self=<Set (ScanDispositivoPorta.idScanDispositivo = 11)>, *fields=[<pydal.objects.Field object>, <pydal.objects.Field object>, <pydal.objects.Field object>, <pydal.objects.Field object>], **attributes={})'
p173
sg89
S'select'
p174
sa(dp175
g66
S'/var/www/web2py/gluon/packages/dal/pydal/adapters/sqlite.py'
p176
sg68
(dp177
S'fields'
p178
S'[<pydal.objects.Field object>, <pydal.objects.Field object>, <pydal.objects.Field object>, <pydal.objects.Field object>]'
p179
sS'self'
p180
S'<pydal.adapters.sqlite.SQLiteAdapter object>'
p181
sS').select'
p182
S'<bound method SQLiteAdapter.select of <pydal.adapters.sqlite.SQLiteAdapter object>>'
p183
sS'attributes'
p184
g21
sS'global SQLiteAdapter'
p185
S"<class 'pydal.adapters.sqlite.SQLiteAdapter'>"
p186
sS'query'
p187
S'<Query (ScanDispositivoPorta.idScanDispositivo = 11)>'
p188
sS'builtinsuper'
p189
S"<type 'super'>"
p190
ssg74
I123
sg75
(dp191
I118
S'        Note that the entire database, rather than one record, is locked'
p192
sI119
S'        (it will be locked eventually anyway by the following UPDATE).'
p193
sI120
S'        """'
p194
sI121
S"        if attributes.get('for_update', False) and not 'cache' in attributes:"
p195
sI122
S"            self.execute('BEGIN IMMEDIATE TRANSACTION;')"
p196
sI123
S'        return super(SQLiteAdapter, self).select(query, fields, attributes)'
p197
sI124
S''
sI125
S''
sI126
S'SPATIALLIBS = {'
p198
sI127
S"    'Windows':'mod_spatialite.dll',"
p199
ssg87
S'(self=<pydal.adapters.sqlite.SQLiteAdapter object>, query=<Query (ScanDispositivoPorta.idScanDispositivo = 11)>, fields=[<pydal.objects.Field object>, <pydal.objects.Field object>, <pydal.objects.Field object>, <pydal.objects.Field object>], attributes={})'
p200
sg89
g174
sa(dp201
g66
S'/var/www/web2py/gluon/packages/dal/pydal/adapters/base.py'
p202
sg68
(dp203
S'fields'
p204
S'[<pydal.objects.Field object>, <pydal.objects.Field object>, <pydal.objects.Field object>, <pydal.objects.Field object>]'
p205
sS'self'
p206
S'<pydal.adapters.sqlite.SQLiteAdapter object>'
p207
sS'attributes'
p208
g21
sS'self._select_aux'
p209
S'<bound method SQLiteAdapter._select_aux of <pydal.adapters.sqlite.SQLiteAdapter object>>'
p210
sS'sql'
p211
S"'SELECT  ScanDispositivoPorta.id, ScanDispositivo...RE (ScanDispositivoPorta.idScanDispositivo = 11);'"
p212
ssg74
I1296
sg75
(dp213
I1291
S'            return cache_model('
p214
sI1292
S'                key,'
p215
sI1293
S'                lambda self=self,args=args:self._select_aux(*args),'
p216
sI1294
S'                time_expire)'
p217
sI1295
S'        else:'
p218
sI1296
S'            return self._select_aux(sql,fields,attributes)'
p219
sI1297
S''
sI1298
S'    def iterselect(self, query, fields, attributes):'
p220
sI1299
S'        sql = self._select(query, fields, attributes)'
p221
sI1300
S"        cacheable = attributes.get('cacheable', False)"
p222
ssg87
S'(self=<pydal.adapters.sqlite.SQLiteAdapter object>, query=<Query (ScanDispositivoPorta.idScanDispositivo = 11)>, fields=[<pydal.objects.Field object>, <pydal.objects.Field object>, <pydal.objects.Field object>, <pydal.objects.Field object>], attributes={})'
p223
sg89
g174
sa(dp224
g66
S'/var/www/web2py/gluon/packages/dal/pydal/adapters/base.py'
p225
sg68
(dp226
S'self'
p227
S'<pydal.adapters.sqlite.SQLiteAdapter object>'
p228
sS'self.execute'
p229
S'<bound method SQLiteAdapter.execute of <pydal.adapters.sqlite.SQLiteAdapter object>>'
p230
sS'sql'
p231
S"'SELECT  ScanDispositivoPorta.id, ScanDispositivo...RE (ScanDispositivoPorta.idScanDispositivo = 11);'"
p232
ssg74
I1253
sg75
(dp233
I1248
S''
sI1249
S'    def _select_aux(self, sql, fields, attributes):'
p234
sI1250
S'        args_get = attributes.get'
p235
sI1251
S"        cache = args_get('cache',None)"
p236
sI1252
S'        if not cache:'
p237
sI1253
S'            self.execute(sql)'
p238
sI1254
S'            rows = self._fetchall()'
p239
sI1255
S'        else:'
p240
sI1256
S'            if isinstance(cache, dict):'
p241
sI1257
S"                cache_model = cache['model']"
p242
ssg87
S"(self=<pydal.adapters.sqlite.SQLiteAdapter object>, sql='SELECT  ScanDispositivoPorta.id, ScanDispositivo...RE (ScanDispositivoPorta.idScanDispositivo = 11);', fields=[<pydal.objects.Field object>, <pydal.objects.Field object>, <pydal.objects.Field object>, <pydal.objects.Field object>], attributes={})"
p243
sg89
S'_select_aux'
p244
sa(dp245
g66
S'/var/www/web2py/gluon/packages/dal/pydal/adapters/base.py'
p246
sg68
(dp247
S'a'
S"('SELECT  ScanDispositivoPorta.id, ScanDispositivo...RE (ScanDispositivoPorta.idScanDispositivo = 11);',)"
p248
sS'self'
p249
S'<pydal.adapters.sqlite.SQLiteAdapter object>'
p250
sS'b'
g21
sS'self.log_execute'
p251
S'<bound method SQLiteAdapter.log_execute of <pydal.adapters.sqlite.SQLiteAdapter object>>'
p252
ssg74
I1388
sg75
(dp253
I1383
S'        self.db._timings.append((command,time.time()-t0))'
p254
sI1384
S'        del self.db._timings[:-TIMINGSSIZE]'
p255
sI1385
S'        return ret'
p256
sI1386
S''
sI1387
S'    def execute(self, *a, **b):'
p257
sI1388
S'        return self.log_execute(*a, **b)'
p258
sI1389
S''
sI1390
S'    def execute_test_query(self):'
p259
sI1391
S'        return self.execute(self.test_query)'
p260
sI1392
S''
ssg87
S"(self=<pydal.adapters.sqlite.SQLiteAdapter object>, *a=('SELECT  ScanDispositivoPorta.id, ScanDispositivo...RE (ScanDispositivoPorta.idScanDispositivo = 11);',), **b={})"
p261
sg89
S'execute'
p262
sa(dp263
g66
S'/var/www/web2py/gluon/packages/dal/pydal/adapters/base.py'
p264
sg68
(dp265
S'a'
S"('SELECT  ScanDispositivoPorta.id, ScanDispositivo...RE (ScanDispositivoPorta.idScanDispositivo = 11);',)"
p266
sS'b'
g21
sS'self'
p267
S'<pydal.adapters.sqlite.SQLiteAdapter object>'
p268
sS'ret'
p269
g108
sS'command'
p270
S"'SELECT  ScanDispositivoPorta.id, ScanDispositivo...RE (ScanDispositivoPorta.idScanDispositivo = 11);'"
p271
sS'self.get_cursor'
p272
S'<bound method SQLiteAdapter.get_cursor of <pydal.adapters.sqlite.SQLiteAdapter object>>'
p273
sS').execute'
p274
g108
ssg74
I1382
sg75
(dp275
I1377
S'            command = self.filter_sql_command(command)'
p276
sI1378
S'        if self.db._debug:'
p277
sI1379
S"            self.db.logger.debug('SQL: %s' % command)"
p278
sI1380
S'        self.db._lastsql = command'
p279
sI1381
S'        t0 = time.time()'
p280
sI1382
S'        ret = self.get_cursor().execute(command, *a[1:], **b)'
p281
sI1383
S'        self.db._timings.append((command,time.time()-t0))'
p282
sI1384
S'        del self.db._timings[:-TIMINGSSIZE]'
p283
sI1385
S'        return ret'
p284
sI1386
S''
ssg87
S"(self=<pydal.adapters.sqlite.SQLiteAdapter object>, *a=('SELECT  ScanDispositivoPorta.id, ScanDispositivo...RE (ScanDispositivoPorta.idScanDispositivo = 11);',), **b={})"
p285
sg89
S'log_execute'
p286
sasS'pyver'
p287
S'Python 2.7.13: /usr/bin/python (prefix: /usr)'
p288
sS'session'
p289
g61
(S's\x1a\x00\x00\x00<div><table></table></div>'
tRp290
sS'etype'
p291
S"<class 'pysqlite2.dbapi2.OperationalError'>"
p292
sS'date'
p293
S'Tue Aug 29 20:44:31 2017'
p294
sS'response'
p295
g61
(S's\x0f\x16\x00\x00<div><table><tr><td style="font-weight:bold;vertical-align:top;">body</td><td style="vertical-align:top;">:</td><td><div>&lt;cStringIO.StringO object at 0x7f0e60387df8&gt;</div></td></tr><tr><td style="font-weight:bold;vertical-align:top;">cookies</td><td style="vertical-align:top;">:</td><td><div><table><tr><td style="font-weight:bold;vertical-align:top;">session_id_tcc</td><td style="vertical-align:top;">:</td><td><div>127.0.0.1-113ef6bb-3718-4675-b4d2-d5d9cd40d6f2<table><tr><td style="font-weight:bold;vertical-align:top;">comment</td><td style="vertical-align:top;">:</td><td><div></div></td></tr><tr><td style="font-weight:bold;vertical-align:top;">domain</td><td style="vertical-align:top;">:</td><td><div></div></td></tr><tr><td style="font-weight:bold;vertical-align:top;">expires</td><td style="vertical-align:top;">:</td><td><div></div></td></tr><tr><td style="font-weight:bold;vertical-align:top;">httponly</td><td style="vertical-align:top;">:</td><td><div></div></td></tr><tr><td style="font-weight:bold;vertical-align:top;">max-age</td><td style="vertical-align:top;">:</td><td><div></div></td></tr><tr><td style="font-weight:bold;vertical-align:top;">path</td><td style="vertical-align:top;">:</td><td><div>/</div></td></tr><tr><td style="font-weight:bold;vertical-align:top;">secure</td><td style="vertical-align:top;">:</td><td><div></div></td></tr><tr><td style="font-weight:bold;vertical-align:top;">version</td><td style="vertical-align:top;">:</td><td><div></div></td></tr></table></div></td></tr></table></div></td></tr><tr><td style="font-weight:bold;vertical-align:top;">delimiters</td><td style="vertical-align:top;">:</td><td><div><table><tr><td><div>{{</div></td></tr><tr><td><div>}}</div></td></tr></table></div></td></tr><tr><td style="font-weight:bold;vertical-align:top;">files</td><td style="vertical-align:top;">:</td><td><div><table></table></div></td></tr><tr><td style="font-weight:bold;vertical-align:top;">flash</td><td style="vertical-align:top;">:</td><td><div></div></td></tr><tr><td style="font-weight:bold;vertical-align:top;">form_label_separator</td><td style="vertical-align:top;">:</td><td><div>: </div></td></tr><tr><td style="font-weight:bold;vertical-align:top;">formstyle</td><td style="vertical-align:top;">:</td><td><div>table3cols</div></td></tr><tr><td style="font-weight:bold;vertical-align:top;">generic_patterns</td><td style="vertical-align:top;">:</td><td><div><table><tr><td><div>*</div></td></tr></table></div></td></tr><tr><td style="font-weight:bold;vertical-align:top;">headers</td><td style="vertical-align:top;">:</td><td><div><table><tr><td style="font-weight:bold;vertical-align:top;">X-Powered-By</td><td style="vertical-align:top;">:</td><td><div>web2py</div></td></tr></table></div></td></tr><tr><td style="font-weight:bold;vertical-align:top;">menu</td><td style="vertical-align:top;">:</td><td><div><table></table></div></td></tr><tr><td style="font-weight:bold;vertical-align:top;">meta</td><td style="vertical-align:top;">:</td><td><div><table></table></div></td></tr><tr><td style="font-weight:bold;vertical-align:top;">models_to_run</td><td style="vertical-align:top;">:</td><td><div><table><tr><td><div>^\\w+\\.py$</div></td></tr><tr><td><div>^control/\\w+\\.py$</div></td></tr><tr><td><div>^control/dash/\\w+\\.py$</div></td></tr></table></div></td></tr><tr><td style="font-weight:bold;vertical-align:top;">postprocessing</td><td style="vertical-align:top;">:</td><td><div><table></table></div></td></tr><tr><td style="font-weight:bold;vertical-align:top;">session_client</td><td style="vertical-align:top;">:</td><td><div>127.0.0.1</div></td></tr><tr><td style="font-weight:bold;vertical-align:top;">session_cookie_compression_level</td><td style="vertical-align:top;">:</td><td><div>None</div></td></tr><tr><td style="font-weight:bold;vertical-align:top;">session_cookie_expires</td><td style="vertical-align:top;">:</td><td><div>None</div></td></tr><tr><td style="font-weight:bold;vertical-align:top;">session_data_name</td><td style="vertical-align:top;">:</td><td><div>session_data_tcc</div></td></tr><tr><td style="font-weight:bold;vertical-align:top;">session_file</td><td style="vertical-align:top;">:</td><td><div>None</div></td></tr><tr><td style="font-weight:bold;vertical-align:top;">session_filename</td><td style="vertical-align:top;">:</td><td><div>/var/www/web2py/applications/tcc/sessions/127.0.0.1-113ef6bb-3718-4675-b4d2-d5d9cd40d6f2</div></td></tr><tr><td style="font-weight:bold;vertical-align:top;">session_hash</td><td style="vertical-align:top;">:</td><td><div>c0762cbf4baf7f9af97c051e7fcb8083</div></td></tr><tr><td style="font-weight:bold;vertical-align:top;">session_id</td><td style="vertical-align:top;">:</td><td><div>127.0.0.1-113ef6bb-3718-4675-b4d2-d5d9cd40d6f2</div></td></tr><tr><td style="font-weight:bold;vertical-align:top;">session_id_name</td><td style="vertical-align:top;">:</td><td><div>session_id_tcc</div></td></tr><tr><td style="font-weight:bold;vertical-align:top;">session_masterapp</td><td style="vertical-align:top;">:</td><td><div>tcc</div></td></tr><tr><td style="font-weight:bold;vertical-align:top;">session_new</td><td style="vertical-align:top;">:</td><td><div>True</div></td></tr><tr><td style="font-weight:bold;vertical-align:top;">session_storage_type</td><td style="vertical-align:top;">:</td><td><div>file</div></td></tr><tr><td style="font-weight:bold;vertical-align:top;">status</td><td style="vertical-align:top;">:</td><td><div>200</div></td></tr><tr><td style="font-weight:bold;vertical-align:top;">view</td><td style="vertical-align:top;">:</td><td><div>control/dash.html</div></td></tr></table></div>'
tRp296
sS'locals'
p297
(dp298
S'a'
S"('SELECT  ScanDispositivoPorta.id, ScanDispositivo...RE (ScanDispositivoPorta.idScanDispositivo = 11);',)"
p299
sS'self'
p300
S'<pydal.adapters.sqlite.SQLiteAdapter object>'
p301
sS'b'
g21
sS'command'
p302
S"'SELECT  ScanDispositivoPorta.id, ScanDispositivo...RE (ScanDispositivoPorta.idScanDispositivo = 11);'"
p303
sS't0'
p304
S'1504053871.737994'
p305
sssS'traceback'
p306
S'Traceback (most recent call last):\n  File "/var/www/web2py/gluon/restricted.py", line 227, in restricted\n    exec ccode in environment\n  File "/var/www/web2py/applications/tcc/controllers/control.py", line 238, in <module>\n  File "/var/www/web2py/gluon/globals.py", line 417, in <lambda>\n    self._caller = lambda f: f()\n  File "/var/www/web2py/applications/tcc/controllers/control.py", line 40, in dash\n    portas.append(db((db.ScanDispositivoPorta.idScanDispositivo == so[\'id\'])).select().as_list())\n  File "/var/www/web2py/gluon/packages/dal/pydal/objects.py", line 2020, in select\n    return adapter.select(self.query, fields, attributes)\n  File "/var/www/web2py/gluon/packages/dal/pydal/adapters/sqlite.py", line 123, in select\n    return super(SQLiteAdapter, self).select(query, fields, attributes)\n  File "/var/www/web2py/gluon/packages/dal/pydal/adapters/base.py", line 1296, in select\n    return self._select_aux(sql,fields,attributes)\n  File "/var/www/web2py/gluon/packages/dal/pydal/adapters/base.py", line 1253, in _select_aux\n    self.execute(sql)\n  File "/var/www/web2py/gluon/packages/dal/pydal/adapters/base.py", line 1388, in execute\n    return self.log_execute(*a, **b)\n  File "/var/www/web2py/gluon/packages/dal/pydal/adapters/base.py", line 1382, in log_execute\n    ret = self.get_cursor().execute(command, *a[1:], **b)\nOperationalError: no such column: ScanDispositivoPorta.id\n'
p307
s.