(dp1
S'output'
p2
S'missing "pass" in view'
p3
sS'layer'
p4
S'ParserContainer'
p5
sS'code'
p6
S'response.write(\'<!DOCTYPE html>\\n<html lang="en">\\n\\n<head>\\n    <meta charset="utf-8">\\n    <meta http-equiv="X-UA-Compatible" content="IE=edge">\\n    <meta name="viewport" content="width=device-width, initial-scale=1">\\n    <meta name="description" content="">\\n    <meta name="author" content="">\\n\\n    <link rel="icon" href="\', escape=False)\nresponse.write(URL(a=\'tcc\', c=\'static\', f=\'images\'))\nresponse.write(\'/imagem.png">\\n\\n    <title>VulnScan</title>\\n\\n    <!-- Bootstrap Core CSS -->\\n     <link href="\', escape=False)\nresponse.write(URL(a=\'tcc\', c=\'static\', f=\'css\'))\nresponse.write(\'/bootstrap.min.css" rel="stylesheet">\\n\\n    <!-- Custom CSS -->\\n   <link href="\', escape=False)\nresponse.write(URL(a=\'tcc\', c=\'static\', f=\'css\'))\nresponse.write(\'/sb-admin.css" rel="stylesheet">\\n\\n    <!-- Custom Fonts -->\\n    <link href="\', escape=False)\nresponse.write(URL(a=\'tcc\', c=\'static\', f=\'font-awesome\'))\nresponse.write(\'/css/font-awesome.min.css" rel="stylesheet" type="text/css">\\n\\n    <!-- HTML5 Shim and Respond.js IE8 support of HTML5 elements and media queries -->\\n    <!-- WARNING: Respond.js doesn\\\'t work if you view the page via file:// -->\\n    <!--[if lt IE 9]>\\n        <script src="https://oss.maxcdn.com/libs/html5shiv/3.7.0/html5shiv.js"></script>\\n        <script src="https://oss.maxcdn.com/libs/respond.js/1.4.2/respond.min.js"></script>\\n    <![endif]-->\\n\\n\\n    <!-- Bootstrap Core CSS RTL-->\\n    <!--<<link href="\', escape=False)\nresponse.write(URL(a=\'tcc\', c=\'static\', f=\'css\'))\nresponse.write(\'/bootstrap-rtl.min.css" rel="stylesheet">!-->\\n\\n    <!-- Morris Charts CSS -->\\n    <link href="\', escape=False)\nresponse.write(URL(a=\'tcc\', c=\'static\', f=\'css\'))\nresponse.write(\'/plugins/morris.css" rel="stylesheet">\\n\\n</head>\\n\\n<body>\\n\\n    <div id="wrapper">\\n\\n        <!-- Navigation -->\\n        <nav class="navbar navbar-inverse navbar-fixed-top" role="navigation">\\n            <!-- Brand and toggle get grouped for better mobile display -->\\n            <div class="navbar-header">\\n                <button type="button" class="navbar-toggle" data-toggle="collapse" data-target=".navbar-ex1-collapse">\\n                    <span class="sr-only">Toggle navigation</span>\\n                    <span class="icon-bar"></span>\\n                    <span class="icon-bar"></span>\\n                    <span class="icon-bar"></span>\\n                </button>\\n                <a class="navbar-brand" href="dash">VulnScan</a>\\n            </div>\\n            <!-- Top Menu Items -->\\n            <ul class="nav navbar-right top-nav">\\n                <!--<li class="dropdown">-->\\n                    <!--<a href="#" class="dropdown-toggle" data-toggle="dropdown"><i class="fa fa-envelope"></i> <b class="caret"></b></a>-->\\n                    <!--<ul class="dropdown-menu message-dropdown">-->\\n                        <!--<li class="message-preview">-->\\n                            <!--<a href="#">-->\\n                                <!--<div class="media">-->\\n                                    <!--<span class="pull-left">-->\\n                                        <!--<img class="media-object" src="http://placehold.it/50x50" alt="">-->\\n                                    <!--</span>-->\\n                                    <!--<div class="media-body">-->\\n                                        <!--<h5 class="media-heading">-->\\n                                            <!--<strong>Admin</strong>-->\\n                                        <!--</h5>-->\\n                                        <!--<p class="small text-muted"><i class="fa fa-clock-o"></i> Yesterday at 4:32 PM</p>-->\\n                                        <!--<p>Lorem ipsum dolor sit amet, consectetur...</p>-->\\n                                    <!--</div>-->\\n                                <!--</div>-->\\n                            <!--</a>-->\\n                        <!--</li>-->\\n                        <!--<li class="message-preview">-->\\n                            <!--<a href="#">-->\\n                                <!--<div class="media">-->\\n                                    <!--<span class="pull-left">-->\\n                                        <!--<img class="media-object" src="http://placehold.it/50x50" alt="">-->\\n                                    <!--</span>-->\\n                                    <!--<div class="media-body">-->\\n                                        <!--<h5 class="media-heading">-->\\n                                            <!--<strong>Admin</strong>-->\\n                                        <!--</h5>-->\\n                                        <!--<p class="small text-muted"><i class="fa fa-clock-o"></i> Yesterday at 4:32 PM</p>-->\\n                                        <!--<p>Lorem ipsum dolor sit amet, consectetur...</p>-->\\n                                    <!--</div>-->\\n                                <!--</div>-->\\n                            <!--</a>-->\\n                        <!--</li>-->\\n                        <!--<li class="message-preview">-->\\n                            <!--<a href="#">-->\\n                                <!--<div class="media">-->\\n                                    <!--<span class="pull-left">-->\\n                                        <!--<img class="media-object" src="http://placehold.it/50x50" alt="">-->\\n                                    <!--</span>-->\\n                                    <!--<div class="media-body">-->\\n                                        <!--<h5 class="media-heading">-->\\n                                            <!--<strong>Admin</strong>-->\\n                                        <!--</h5>-->\\n                                        <!--<p class="small text-muted"><i class="fa fa-clock-o"></i> Yesterday at 4:32 PM</p>-->\\n                                        <!--<p>Lorem ipsum dolor sit amet, consectetur...</p>-->\\n                                    <!--</div>-->\\n                                <!--</div>-->\\n                            <!--</a>-->\\n                        <!--</li>-->\\n                        <!--<li class="message-footer">-->\\n                            <!--<a href="#">Read All New Messages</a>-->\\n                        <!--</li>-->\\n                    <!--</ul>-->\\n                <!--</li>-->\\n                <!--<li class="dropdown">-->\\n                    <!--<a href="#" class="dropdown-toggle" data-toggle="dropdown"><i class="fa fa-bell"></i> <b class="caret"></b></a>-->\\n                    <!--<ul class="dropdown-menu alert-dropdown">-->\\n                        <!--<li>-->\\n                            <!--<a href="#">Alert Name <span class="label label-default">Alert Badge</span></a>-->\\n                        <!--</li>-->\\n                        <!--<li>-->\\n                            <!--<a href="#">Alert Name <span class="label label-primary">Alert Badge</span></a>-->\\n                        <!--</li>-->\\n                        <!--<li>-->\\n                            <!--<a href="#">Alert Name <span class="label label-success">Alert Badge</span></a>-->\\n                        <!--</li>-->\\n                        <!--<li>-->\\n                            <!--<a href="#">Alert Name <span class="label label-info">Alert Badge</span></a>-->\\n                        <!--</li>-->\\n                        <!--<li>-->\\n                            <!--<a href="#">Alert Name <span class="label label-warning">Alert Badge</span></a>-->\\n                        <!--</li>-->\\n                        <!--<li>-->\\n                            <!--<a href="#">Alert Name <span class="label label-danger">Alert Badge</span></a>-->\\n                        <!--</li>-->\\n                        <!--<li class="divider"></li>-->\\n                        <!--<li>-->\\n                            <!--<a href="#">View All</a>-->\\n                        <!--</li>-->\\n                    <!--</ul>-->\\n                <!--</li>-->\\n                <li class="dropdown">\\n                    <a href="#" class="dropdown-toggle" data-toggle="dropdown"><i class="fa fa-user"></i> Admin <b class="caret"></b></a>\\n                    <ul class="dropdown-menu">\\n                        <!--<li>-->\\n                            <!--<a href="#"><i class="fa fa-fw fa-user"></i> Perfil</a>-->\\n                        <!--</li>-->\\n                        <!--<li>-->\\n                            <!--<a href="#"><i class="fa fa-fw fa-envelope"></i> Inbox</a>-->\\n                        <!--</li>-->\\n                        <!--<li>-->\\n                            <!--<a href="#"><i class="fa fa-fw fa-gear"></i> Configura\\xc3\\xa7\\xc3\\xb5es</a>-->\\n                        <!--</li>-->\\n                        <!--<li class="divider"></li>-->\\n                        <li>\\n                            <a href="#"><i class="fa fa-fw fa-power-off"></i> Sair</a>\\n                        </li>\\n                    </ul>\\n                </li>\\n            </ul>\\n            <!-- Sidebar Menu Items - These collapse to the responsive navigation menu on small screens -->\\n            <div class="collapse navbar-collapse navbar-ex1-collapse">\\n                <ul class="nav navbar-nav side-nav">\\n                    <li>\\n                        <a href="dash"><i class="fa fa-fw fa-dashboard"></i> Dashboard</a>\\n                    </li>\\n                    <li>\\n                        <a href="scan"><i class="fa fa-fw fa-bar-chart-o"></i> Scans</a>\\n                    </li>\\n                    <li>\\n                        <a href="relatorio"><i class="fa fa-fw fa-table"></i> Relat\\xc3\\xb3rio</a>\\n                    </li>\\n                    <li>\\n                        <a href="settings"><i class="fa fa-fw fa-edit"></i> Configura\\xc3\\xa7\\xc3\\xb5es</a>\\n                    </li>\\n                    <!--<li>\\n                        <a href="javascript:;" data-toggle="collapse" data-target="#demo"><i class="fa fa-fw fa-arrows-v"></i> Dropdown <i class="fa fa-fw fa-caret-down"></i></a>\\n                        <ul id="demo" class="collapse">\\n                            <li>\\n                                <a href="#">Dropdown Item</a>\\n                            </li>\\n                            <li>\\n                                <a href="#">Dropdown Item</a>\\n                            </li>\\n                        </ul>\\n                    </li>!-->\\n                </ul>\\n            </div>\\n            <!-- /.navbar-collapse -->\\n        </nav>\\n\\n        <div id="page-wrapper">\\n            \', escape=False)\nresponse.write(\'\\n<br>\\n<div class="modal fade" id="modalWindows">\\n  <div class="modal-dialog" role="document">\\n    <div class="modal-content">\\n      <div class="modal-header">\\n        <h5 class="modal-title">Dispositivos Windows</h5>\\n        <button type="button" class="close" data-dismiss="modal" aria-label="Close">\\n          <span aria-hidden="true">&times;</span>\\n        </button>\\n      </div>\\n      <div class="modal-body">\\n                <div class="table-responsive">\\n                    <table class="table table-bordered table-hover table-striped">\\n                        <thead>\\n                        <tr>\\n                            <th>Ip</th>\\n                            <th>Mac</th>\\n                            <th>Fabricante</th>\\n                        </tr>\\n                        </thead>\\n                        <tbody>\\n                            \', escape=False)\nfor item in windows_disp:\n    response.write(\'<tr><td>\', escape=False)\n    response.write(item[\'ip\'])\n    response.write(\'</td><td>\', escape=False)\n    response.write(item[\'mac\'])\n    response.write(\'</td><td>\', escape=False)\n    response.write(item[\'nomeFabricante\'])\n    response.write(\'</td></tr>\', escape=False)\n    pass\nresponse.write(\'\\n                        </tbody>\\n                    </table>\\n            </div>\\n      </div>\\n      <div class="modal-footer">\\n        <button type="button" class="btn btn-secondary" data-dismiss="modal">Fechar</button>\\n      </div>\\n    </div>\\n  </div>\\n</div>\\n<div class="modal fade" id="modalLinux">\\n  <div class="modal-dialog" role="document">\\n    <div class="modal-content">\\n      <div class="modal-header">\\n        <h5 class="modal-title">Dispositivos Linux</h5>\\n        <button type="button" class="close" data-dismiss="modal" aria-label="Close">\\n          <span aria-hidden="true">&times;</span>\\n        </button>\\n      </div>\\n      <div class="modal-body">\\n                <div class="table-responsive">\\n                    <table class="table table-bordered table-hover table-striped">\\n                        <thead>\\n                        <tr>\\n                            <th>Ip</th>\\n                            <th>Mac</th>\\n                            <th>Fabricante</th>\\n                        </tr>\\n                        </thead>\\n                        <tbody>\\n                            \', escape=False)\nfor item in linux_disp:\n    response.write(\'<tr><td>\', escape=False)\n    response.write(item[\'ip\'])\n    response.write(\'</td><td>\', escape=False)\n    response.write(item[\'mac\'])\n    response.write(\'</td><td>\', escape=False)\n    response.write(item[\'nomeFabricante\'])\n    response.write(\'</td></tr>\', escape=False)\n    pass\nresponse.write(\'\\n                        </tbody>\\n                    </table>\\n            </div>\\n      </div>\\n      <div class="modal-footer">\\n        <button type="button" class="btn btn-secondary" data-dismiss="modal">Fechar</button>        \\n      </div>\\n    </div>\\n  </div>\\n</div>\\n<div class="modal fade" id="modalOutros">\\n  <div class="modal-dialog" role="document">\\n    <div class="modal-content">\\n      <div class="modal-header">\\n        <h5 class="modal-title">Outros Dispositivos</h5>\\n        <button type="button" class="close" data-dismiss="modal" aria-label="Close">\\n          <span aria-hidden="true">&times;</span>\\n        </button>\\n      </div>\\n      <div class="modal-body">\\n                <div class="table-responsive">\\n                    <table class="table table-bordered table-hover table-striped">\\n                        <thead>\\n                        <tr>\\n                            <th>Ip</th>\\n                            <th>Mac</th>\\n                            <th>Fabricante</th>\\n                        </tr>\\n                        </thead>\\n                        <tbody>\\n                            \', escape=False)\nfor item in outros_disp:\n    response.write(\'<tr><td>\', escape=False)\n    response.write(item[\'ip\'])\n    response.write(\'</td><td>\', escape=False)\n    response.write(item[\'mac\'])\n    response.write(\'</td><td>\', escape=False)\n    response.write(item[\'nomeFabricante\'])\n    response.write(\'</td></tr>\', escape=False)\n    pass\nresponse.write(\'\\n                        </tbody>\\n                    </table>\\n            </div>\\n      </div>\\n      <div class="modal-footer">\\n            <button type="button" class="btn btn-secondary" data-dismiss="modal">Fechar</button>\\n      </div>\\n    </div>\\n  </div>\\n</div>\\n<div class="modal fade" id="modalPortas">\\n  <div class="modal-dialog" role="document">\\n    <div class="modal-content">\\n      <div class="modal-header">\\n        <h5 class="modal-title">Portas Abertas</h5>\\n        <button type="button" class="close" data-dismiss="modal" aria-label="Close">\\n          <span aria-hidden="true">&times;</span>\\n        </button>\\n      </div>\\n      <div class="modal-body">\\n                <div class="table-responsive">\\n                    <table class="table table-bordered table-hover table-striped">\\n                        <thead>\\n                        <tr>\\n                            <th>Dispositivo</th>\\n                            <th>Mac</th>\\n                            <th>Qtde Portas</th>\\n                        </tr>\\n                        </thead>\\n                        <tbody>\\n                            \', escape=False)\nfor item in dispositivos:\n    if item[\'qtdPortas\'] > 0:\n        response.write(\'<tr><td>\', escape=False)\n        response.write(item[\'ip\'])\n        response.write(\'</td><td>\', escape=False)\n        response.write(item[\'mac\'])\n        response.write(\'</td><td>\', escape=False)\n        response.write(item[\'qtdPortas\'])\n        response.write(\'</td></tr>\', escape=False)\n        pass\n    response.write(\'\\n                        </tbody>\\n                    </table>\\n            </div>\\n      </div>\\n      <div class="modal-footer">\\n            <button type="button" class="btn btn-secondary" data-dismiss="modal">Fechar</button>\\n      </div>\\n    </div>\\n  </div>\\n</div>\\n<div class="container-fluid">\\n    <!-- Page Heading -->\\n    <div class="row">\\n        <div class="col-lg-12">\\n            <h1 class="page-header">\\n                Dashboard \', escape=False)\n    response.write(dispositivos)\n    response.write(\'\\n                <small></small>\\n            </h1>\\n            <ol class="breadcrumb">\\n                <li>\\n                    <i class="fa fa-dashboard"></i>  <a href="\', escape=False)\n    response.write(URL(a=\'tcc\', c=\'control\', f=\'dash\'))\n    response.write(\'">Dashboard</a>\\n                </li>\\n                <li class="active"></li>\\n            </ol>\\n        </div>\\n    </div><!-- /.row -->\\n</div><!-- /.container-fluid -->\\n\\n<div class="row">\\n    <div class="col-lg-3 col-md-6">\\n        <div class="panel panel-primary">\\n            <div class="panel-heading">\\n                <div class="row">\\n                    <div class="col-xs-3">\\n                        <i class="fa fa-windows fa-5x"></i>\\n                    </div>\\n                    <div class="col-xs-9 text-right">\\n                    <div class="huge">\', escape=False)\n    response.write(count_windows)\n    response.write(\'</div>\\n                        <div>Windows</div>\\n                    </div>\\n                </div>\\n            </div>\\n            <a href="#" onclick="openModal(1)">\\n                <div class="panel-footer">\\n                    <span class="pull-left">Ver Detalhes</span>\\n                    <span class="pull-right"><i class="fa fa-arrow-circle-right"></i></span>\\n                    <div class="clearfix"></div>\\n                </div>\\n            </a>\\n        </div>\\n    </div>\\n\\n    <div class="col-lg-3 col-md-6">\\n        <div class="panel panel-green">\\n            <div class="panel-heading">\\n                <div class="row">\\n                    <div class="col-xs-3">\\n                        <i class="fa fa-linux fa-5x"></i>\\n                    </div>\\n                    <div class="col-xs-9 text-right">\\n                        <div class="huge">\', escape=False)\n    response.write(count_linux)\n    response.write(\'</div>\\n                        <div>Linux</div>\\n                    </div>\\n                </div>\\n            </div>\\n            <a href="#" onclick="openModal(2)">\\n                <div class="panel-footer">\\n                    <span class="pull-left">Ver Detalhes</span>\\n                    <span class="pull-right"><i class="fa fa-arrow-circle-right"></i></span>\\n                    <div class="clearfix"></div>\\n                </div>\\n            </a>\\n        </div>\\n    </div>\\n    <div class="col-lg-3 col-md-6">\\n        <div class="panel panel-yellow">\\n            <div class="panel-heading">\\n                <div class="row">\\n                    <div class="col-xs-3">\\n                        <i class="fa fa-android fa-5x"></i>\\n                    </div>\\n                    <div class="col-xs-9 text-right">\\n                        <div class="huge">\', escape=False)\n    response.write(count_outros)\n    response.write(\'</div>\\n                        <div>Outros Dispositivos</div>\\n                    </div>\\n                </div>\\n            </div>\\n            <a href="#" onclick="openModal(3)">\\n                <div class="panel-footer">\\n                    <span class="pull-left">Ver Detalhes</span>\\n                    <span class="pull-right"><i class="fa fa-arrow-circle-right"></i></span>\\n                    <div class="clearfix"></div>\\n                </div>\\n            </a>\\n        </div>\\n    </div>\\n    <div class="col-lg-3 col-md-6">\\n        <div class="panel panel-red">\\n            <div class="panel-heading">\\n                <div class="row">\\n                    <div class="col-xs-3">\\n                        <i class="fa fa-warning fa-5x"></i>\\n                    </div>\\n                    <div class="col-xs-9 text-right">\\n                        <div class="huge">\', escape=False)\n    response.write(count_portas)\n    response.write(\'</div>\\n                        <div>Portas Abertas</div>\\n                    </div>\\n                </div>\\n            </div>\\n            <a href="#">\\n                <div class="panel-footer">\\n                    <span class="pull-left">Ver Detalhes</span>\\n                    <span class="pull-right"><i class="fa fa-arrow-circle-right"></i></span>\\n                    <div class="clearfix"></div>\\n                </div>\\n            </a>\\n        </div>\\n    </div>\\n</div>\\n<br>\\n<br>\\n\\n<br><br><br>\\n\\n<div id="page-wrapper">\\n    <div class="container-fluid">\\n        <div class="row">\\n            <div class="col-lg-6">\\n                <h2>Informa\\xc3\\xa7\\xc3\\xa3o da Rede</h2>\\n                <div class="table-responsive">\\n                    <table class="table table-bordered table-hover">\\n                        <tbody>\\n                        <tr>\\n                            <th>Meu IP</th>\\n                            <td>\', escape=False)\n    response.write(ips)\n    response.write(\'</td>\\n                        </tr>\\n                        <tr>\\n                            <th>IP Externo</th>\\n                            <td>\', escape=False)\n    response.write(ip_externo[3])\n    response.write(\'</td>\\n                        </tr>\\n                        <tr>\\n                            <th>Quantidade Host</th>\\n                            <td><span id="qtde_host"></span></td>\\n                        </tr>\\n                        </tbody>\\n                    </table>\\n                </div>\\n            </div>\\n            <div class="col-lg-6">\\n                <h2>Servi\\xc3\\xa7os comuns associados as principais portas utilizadas</h2>\\n                <div class="table-responsive">\\n                    <table class="table table-bordered table-hover table-striped">\\n                        <thead>\\n                        <tr>\\n                            <th>Servi\\xc3\\xa7o/Porta</th>\\n                            <th>Hosts</th>\\n                        </tr>\\n                        </thead>\\n                        <tbody>\\n                        <tr>\\n                            <td>FTP/21</td>\\n                            <td>1265</td>\\n                        </tr>\\n                        <tr>\\n                            <td>SSH/22</td>\\n                            <td>261</td>\\n                        </tr>\\n                        <tr>\\n                            <td>Telnet/23</td>\\n                            <td>665</td>\\n                        </tr>\\n                        <tr>\\n                            <td>SMTP/25</td>\\n                            <td>9516</td>\\n                        </tr>\\n                        <tr>\\n                            <td>DNS/53</td>\\n                            <td>23</td>\\n                        </tr>\\n                        <tr>\\n                            <td>HTTP/80</td>\\n                            <td>421</td>\\n                        </tr>\\n                        <tr>\\n                            <td>RPC/111</td>\\n                            <td>1233</td>\\n                        </tr>\\n                        <tr>\\n                            <td>NetBIOS/137</td>\\n                            <td>1233</td>\\n                        </tr>\\n                        <tr>\\n                            <td>HTTPS/443</td>\\n                            <td>1233</td>\\n                        </tr>\\n                        <tr>\\n                            <td>SMB/445</td>\\n                            <td>1233</td>\\n                        </tr>\\n                        <tr>\\n                            <td>SIP/5060</td>\\n                            <td>1233</td>\\n                        </tr>\\n                        <tr>\\n                            <td>MySQL/3306</td>\\n                            <td>1233</td>\\n                        </tr>\\n                        </tbody>\\n                    </table>\\n                </div>\\n            </div>\\n        </div>\\n        <!-- /.row -->\\n    </div>\\n    <!-- /.container-fluid -->\\n</div>\\n<!-- /#page-wrapper -->\\n</div>\\n<!-- /#wrapper -->\\n\\n<!-- jQuery -->\\n<script src="js/jquery.js"></script>\\n\\n<!-- Bootstrap Core JavaScript -->\\n<script src="js/bootstrap.min.js"></script>\\n\\n\\n\', escape=False)\n    response.write(\'\\n        </div>\\n    </div>\\n\\n    <!-- jQuery -->\\n    <script src="\', escape=False)\n    response.write(URL(a=\'tcc\', c=\'static\', f=\'js\'))\n    response.write(\'/jquery.js"></script>\\n\\n    <!-- Bootstrap Core JavaScript -->\\n    <script src="\', escape=False)\n    response.write(URL(a=\'tcc\', c=\'static\', f=\'js\'))\n    response.write(\'/bootstrap.min.js"></script>\\n\\n</body>\\n\\n</html>\\n\\n\', escape=False)\n    response.write(\'\\n\\n<script>\\n    $.get("\', escape=False)\n    response.write(URL(a=\'tcc\', c=\'control\', f=\'qtde_host\'))\n    response.write(\'", function( data ) {\\n    $(\\\'#qtde_host\\\').html(data)\\n    });\\n\\n    function openModal(tipo){\\n        if(tipo == 1){\\n            $("#modalWindows").modal("show");\\n            return;\\n        }\\n        \\n        if(tipo == 2){\\n            $("#modalLinux").modal("show");\\n            return;\\n        }\\n\\n        else{\\n            $("#modalOutros").modal("show");\\n            return;\\n        }\\n    }\\n</script>\\n\\n\', escape=False)'
p7
sS'snapshot'
p8
(dp9
sS'traceback'
p10
S'None\n'
p11
s.