(dp1
S'output'
p2
S"<type 'exceptions.IndexError'> list index out of range"
p3
sS'layer'
p4
S'/var/www/web2py/applications/tcc/views/estrutura/dash.html'
p5
sS'code'
p6
S'response.write(\'<!DOCTYPE html>\\n<html lang="en">\\n\\n<head>\\n    <meta charset="utf-8">\\n    <meta http-equiv="X-UA-Compatible" content="IE=edge">\\n    <meta name="viewport" content="width=device-width, initial-scale=1">\\n    <meta name="description" content="">\\n    <meta name="author" content="">\\n\\n    <link rel="icon" href="\', escape=False)\nresponse.write(URL(a=\'tcc\', c=\'static\', f=\'images\'))\nresponse.write(\'/imagem.png">\\n\\n    <title>VulnScan</title>\\n\\n    <!-- Bootstrap Core CSS -->\\n     <link href="\', escape=False)\nresponse.write(URL(a=\'tcc\', c=\'static\', f=\'css\'))\nresponse.write(\'/bootstrap.min.css" rel="stylesheet">\\n\\n    <!-- Custom CSS -->\\n   <link href="\', escape=False)\nresponse.write(URL(a=\'tcc\', c=\'static\', f=\'css\'))\nresponse.write(\'/sb-admin.css" rel="stylesheet">\\n\\n    <!-- Custom Fonts -->\\n    <link href="\', escape=False)\nresponse.write(URL(a=\'tcc\', c=\'static\', f=\'font-awesome\'))\nresponse.write(\'/css/font-awesome.min.css" rel="stylesheet" type="text/css">\\n\\n    <!-- HTML5 Shim and Respond.js IE8 support of HTML5 elements and media queries -->\\n    <!-- WARNING: Respond.js doesn\\\'t work if you view the page via file:// -->\\n    <!--[if lt IE 9]>\\n        <script src="https://oss.maxcdn.com/libs/html5shiv/3.7.0/html5shiv.js"></script>\\n        <script src="https://oss.maxcdn.com/libs/respond.js/1.4.2/respond.min.js"></script>\\n    <![endif]-->\\n\\n\\n    <!-- Bootstrap Core CSS RTL-->\\n    <!--<<link href="\', escape=False)\nresponse.write(URL(a=\'tcc\', c=\'static\', f=\'css\'))\nresponse.write(\'/bootstrap-rtl.min.css" rel="stylesheet">!-->\\n\\n    <!-- Morris Charts CSS -->\\n    <link href="\', escape=False)\nresponse.write(URL(a=\'tcc\', c=\'static\', f=\'css\'))\nresponse.write(\'/plugins/morris.css" rel="stylesheet">\\n\\n</head>\\n\\n<body>\\n\\n    <div id="wrapper">\\n\\n        <!-- Navigation -->\\n        <nav class="navbar navbar-inverse navbar-fixed-top" role="navigation">\\n            <!-- Brand and toggle get grouped for better mobile display -->\\n            <div class="navbar-header">\\n                <button type="button" class="navbar-toggle" data-toggle="collapse" data-target=".navbar-ex1-collapse">\\n                    <span class="sr-only">Toggle navigation</span>\\n                    <span class="icon-bar"></span>\\n                    <span class="icon-bar"></span>\\n                    <span class="icon-bar"></span>\\n                </button>\\n                <a class="navbar-brand" href="dash">VulnScan</a>\\n            </div>\\n            <!-- Top Menu Items -->\\n            <ul class="nav navbar-right top-nav">\\n                <!--<li class="dropdown">-->\\n                    <!--<a href="#" class="dropdown-toggle" data-toggle="dropdown"><i class="fa fa-envelope"></i> <b class="caret"></b></a>-->\\n                    <!--<ul class="dropdown-menu message-dropdown">-->\\n                        <!--<li class="message-preview">-->\\n                            <!--<a href="#">-->\\n                                <!--<div class="media">-->\\n                                    <!--<span class="pull-left">-->\\n                                        <!--<img class="media-object" src="http://placehold.it/50x50" alt="">-->\\n                                    <!--</span>-->\\n                                    <!--<div class="media-body">-->\\n                                        <!--<h5 class="media-heading">-->\\n                                            <!--<strong>Admin</strong>-->\\n                                        <!--</h5>-->\\n                                        <!--<p class="small text-muted"><i class="fa fa-clock-o"></i> Yesterday at 4:32 PM</p>-->\\n                                        <!--<p>Lorem ipsum dolor sit amet, consectetur...</p>-->\\n                                    <!--</div>-->\\n                                <!--</div>-->\\n                            <!--</a>-->\\n                        <!--</li>-->\\n                        <!--<li class="message-preview">-->\\n                            <!--<a href="#">-->\\n                                <!--<div class="media">-->\\n                                    <!--<span class="pull-left">-->\\n                                        <!--<img class="media-object" src="http://placehold.it/50x50" alt="">-->\\n                                    <!--</span>-->\\n                                    <!--<div class="media-body">-->\\n                                        <!--<h5 class="media-heading">-->\\n                                            <!--<strong>Admin</strong>-->\\n                                        <!--</h5>-->\\n                                        <!--<p class="small text-muted"><i class="fa fa-clock-o"></i> Yesterday at 4:32 PM</p>-->\\n                                        <!--<p>Lorem ipsum dolor sit amet, consectetur...</p>-->\\n                                    <!--</div>-->\\n                                <!--</div>-->\\n                            <!--</a>-->\\n                        <!--</li>-->\\n                        <!--<li class="message-preview">-->\\n                            <!--<a href="#">-->\\n                                <!--<div class="media">-->\\n                                    <!--<span class="pull-left">-->\\n                                        <!--<img class="media-object" src="http://placehold.it/50x50" alt="">-->\\n                                    <!--</span>-->\\n                                    <!--<div class="media-body">-->\\n                                        <!--<h5 class="media-heading">-->\\n                                            <!--<strong>Admin</strong>-->\\n                                        <!--</h5>-->\\n                                        <!--<p class="small text-muted"><i class="fa fa-clock-o"></i> Yesterday at 4:32 PM</p>-->\\n                                        <!--<p>Lorem ipsum dolor sit amet, consectetur...</p>-->\\n                                    <!--</div>-->\\n                                <!--</div>-->\\n                            <!--</a>-->\\n                        <!--</li>-->\\n                        <!--<li class="message-footer">-->\\n                            <!--<a href="#">Read All New Messages</a>-->\\n                        <!--</li>-->\\n                    <!--</ul>-->\\n                <!--</li>-->\\n                <!--<li class="dropdown">-->\\n                    <!--<a href="#" class="dropdown-toggle" data-toggle="dropdown"><i class="fa fa-bell"></i> <b class="caret"></b></a>-->\\n                    <!--<ul class="dropdown-menu alert-dropdown">-->\\n                        <!--<li>-->\\n                            <!--<a href="#">Alert Name <span class="label label-default">Alert Badge</span></a>-->\\n                        <!--</li>-->\\n                        <!--<li>-->\\n                            <!--<a href="#">Alert Name <span class="label label-primary">Alert Badge</span></a>-->\\n                        <!--</li>-->\\n                        <!--<li>-->\\n                            <!--<a href="#">Alert Name <span class="label label-success">Alert Badge</span></a>-->\\n                        <!--</li>-->\\n                        <!--<li>-->\\n                            <!--<a href="#">Alert Name <span class="label label-info">Alert Badge</span></a>-->\\n                        <!--</li>-->\\n                        <!--<li>-->\\n                            <!--<a href="#">Alert Name <span class="label label-warning">Alert Badge</span></a>-->\\n                        <!--</li>-->\\n                        <!--<li>-->\\n                            <!--<a href="#">Alert Name <span class="label label-danger">Alert Badge</span></a>-->\\n                        <!--</li>-->\\n                        <!--<li class="divider"></li>-->\\n                        <!--<li>-->\\n                            <!--<a href="#">View All</a>-->\\n                        <!--</li>-->\\n                    <!--</ul>-->\\n                <!--</li>-->\\n                <li class="dropdown">\\n                    <a href="#" class="dropdown-toggle" data-toggle="dropdown"><i class="fa fa-user"></i> Admin <b class="caret"></b></a>\\n                    <ul class="dropdown-menu">\\n                        <!--<li>-->\\n                            <!--<a href="#"><i class="fa fa-fw fa-user"></i> Perfil</a>-->\\n                        <!--</li>-->\\n                        <!--<li>-->\\n                            <!--<a href="#"><i class="fa fa-fw fa-envelope"></i> Inbox</a>-->\\n                        <!--</li>-->\\n                        <!--<li>-->\\n                            <!--<a href="#"><i class="fa fa-fw fa-gear"></i> Configura\\xc3\\xa7\\xc3\\xb5es</a>-->\\n                        <!--</li>-->\\n                        <!--<li class="divider"></li>-->\\n                        <li>\\n                            <a href="#"><i class="fa fa-fw fa-power-off"></i> Sair</a>\\n                        </li>\\n                    </ul>\\n                </li>\\n            </ul>\\n            <!-- Sidebar Menu Items - These collapse to the responsive navigation menu on small screens -->\\n            <div class="collapse navbar-collapse navbar-ex1-collapse">\\n                <ul class="nav navbar-nav side-nav">\\n                    <li>\\n                        <a href="dash"><i class="fa fa-fw fa-dashboard"></i> Dashboard</a>\\n                    </li>\\n                    <li>\\n                        <a href="scan"><i class="fa fa-fw fa-bar-chart-o"></i> Scans</a>\\n                    </li>\\n                    <li>\\n                        <a href="relatorio"><i class="fa fa-fw fa-table"></i> Relat\\xc3\\xb3rio</a>\\n                    </li>\\n                    <li>\\n                        <a href="settings"><i class="fa fa-fw fa-edit"></i> Configura\\xc3\\xa7\\xc3\\xb5es</a>\\n                    </li>\\n                    <!--<li>\\n                        <a href="javascript:;" data-toggle="collapse" data-target="#demo"><i class="fa fa-fw fa-arrows-v"></i> Dropdown <i class="fa fa-fw fa-caret-down"></i></a>\\n                        <ul id="demo" class="collapse">\\n                            <li>\\n                                <a href="#">Dropdown Item</a>\\n                            </li>\\n                            <li>\\n                                <a href="#">Dropdown Item</a>\\n                            </li>\\n                        </ul>\\n                    </li>!-->\\n                </ul>\\n            </div>\\n            <!-- /.navbar-collapse -->\\n        </nav>\\n\\n        <div id="page-wrapper">\\n            \', escape=False)\nresponse.write(\'\\n<br>\\n<div class="modal fade" id="modalWindows">\\n    <div class="modal-dialog" role="document">\\n        <div class="modal-content">\\n            <div class="modal-header">\\n                <h5 class="modal-title">Dispositivos Windows</h5>\\n                <button type="button" class="close" data-dismiss="modal" aria-label="Close">\\n          <span aria-hidden="true">&times;</span>\\n        </button>\\n            </div>\\n            <div class="modal-body">\\n                <div class="table-responsive">\\n                    <table class="table table-bordered table-hover table-striped">\\n                        <thead>\\n                            <tr>\\n                                <th>IP</th>\\n                                <th>MAC</th>\\n                                <th>Fabricante</th>\\n                            </tr>\\n                        </thead>\\n                        <tbody>\\n                            \', escape=False)\nfor item in windows_disp:\n    response.write(\'\\n                            <tr>\\n                                <td>\', escape=False)\n    response.write(item[\'ip\'])\n    response.write(\'</td>\\n                                <td>\', escape=False)\n    response.write(item[\'mac\'])\n    response.write(\'</td>\\n                                <td>\', escape=False)\n    response.write(item[\'nomeFabricante\'])\n    response.write(\'</td>\\n                            </tr>\', escape=False)\n    pass\nresponse.write(\'\\n                        </tbody>\\n                    </table>\\n                </div>\\n            </div>\\n            <div class="modal-footer">\\n                <button type="button" class="btn btn-secondary" data-dismiss="modal">Fechar</button>\\n            </div>\\n        </div>\\n    </div>\\n</div>\\n<div class="modal fade" id="modalLinux">\\n    <div class="modal-dialog" role="document">\\n        <div class="modal-content">\\n            <div class="modal-header">\\n                <h5 class="modal-title">Dispositivos Linux</h5>\\n                <button type="button" class="close" data-dismiss="modal" aria-label="Close">\\n          <span aria-hidden="true">&times;</span>\\n        </button>\\n            </div>\\n            <div class="modal-body">\\n                <div class="table-responsive">\\n                    <table class="table table-bordered table-hover table-striped">\\n                        <thead>\\n                            <tr>\\n                                <th>IP</th>\\n                                <th>MAC</th>\\n                                <th>Fabricante</th>\\n                            </tr>\\n                        </thead>\\n                        <tbody>\\n                            \', escape=False)\nfor item in linux_disp:\n    response.write(\'\\n                            <tr>\\n                                <td>\', escape=False)\n    response.write(item[\'ip\'])\n    response.write(\'</td>\\n                                <td>\', escape=False)\n    response.write(item[\'mac\'])\n    response.write(\'</td>\\n                                <td>\', escape=False)\n    response.write(item[\'nomeFabricante\'])\n    response.write(\'</td>\\n                            </tr>\', escape=False)\n    pass\nresponse.write(\'\\n                        </tbody>\\n                    </table>\\n                </div>\\n            </div>\\n            <div class="modal-footer">\\n                <button type="button" class="btn btn-secondary" data-dismiss="modal">Fechar</button>\\n            </div>\\n        </div>\\n    </div>\\n</div>\\n<div class="modal fade" id="modalOutros">\\n    <div class="modal-dialog" role="document">\\n        <div class="modal-content">\\n            <div class="modal-header">\\n                <h5 class="modal-title">Outros Dispositivos</h5>\\n                <button type="button" class="close" data-dismiss="modal" aria-label="Close">\\n          <span aria-hidden="true">&times;</span>\\n        </button>\\n            </div>\\n            <div class="modal-body">\\n                <div class="table-responsive">\\n                    <table class="table table-bordered table-hover table-striped">\\n                        <thead>\\n                            <tr>\\n                                <th>IP</th>\\n                                <th>MAC</th>\\n                                <th>Fabricante</th>\\n                            </tr>\\n                        </thead>\\n                        <tbody>\\n                            \', escape=False)\nfor item in outros_disp:\n    response.write(\'\\n                            <tr>\\n                                <td>\', escape=False)\n    response.write(item[\'ip\'])\n    response.write(\'</td>\\n                                <td>\', escape=False)\n    response.write(item[\'mac\'])\n    response.write(\'</td>\\n                                <td>\', escape=False)\n    response.write(item[\'nomeFabricante\'])\n    response.write(\'</td>\\n                            </tr>\', escape=False)\n    pass\nresponse.write(\'\\n                        </tbody>\\n                    </table>\\n                </div>\\n            </div>\\n            <div class="modal-footer">\\n                <button type="button" class="btn btn-secondary" data-dismiss="modal">Fechar</button>\\n            </div>\\n        </div>\\n    </div>\\n</div>\\n<div class="modal fade" id="modalPortas">\\n    <div class="modal-dialog" role="document">\\n        <div class="modal-content">\\n            <div class="modal-header">\\n                <h5 class="modal-title">Portas Abertas</h5>\\n                <button type="button" class="close" data-dismiss="modal" aria-label="Close">\\n          <span aria-hidden="true">&times;</span>\\n        </button>\\n            </div>\\n            <div class="modal-body">\\n                <div class="table-responsive">\\n                    <table class="table table-bordered table-hover table-striped">\\n                        <thead>\\n                            <tr>\\n                                <th>Dispositivo</th>\\n                                <th>MAC</th>\\n                                <th>Quantidade de Portas</th>\\n                            </tr>\\n                        </thead>\\n                        <tbody>\\n                            \', escape=False)\nfor item in disp:\n    if item[\'qtdPortas\'] > 0:\n        response.write(\'\\n                            <tr>\\n                                <td>\', escape=False)\n        response.write(item[\'ip\'])\n        response.write(\'</td>\\n                                <td>\', escape=False)\n        response.write(item[\'mac\'])\n        response.write(\'</td>\\n                                <td>\', escape=False)\n        response.write(item[\'qtdPortas\'])\n        response.write(\'</td>\\n                            </tr>\', escape=False)\n    else:\n        pass\n    pass\nresponse.write(\'\\n                        </tbody>\\n                    </table>\\n                </div>\\n            </div>\\n            <div class="modal-footer">\\n                <button type="button" class="btn btn-secondary" data-dismiss="modal">Fechar</button>\\n            </div>\\n        </div>\\n    </div>\\n</div>\\n<div class="container-fluid">\\n    <!-- Page Heading -->\\n    <div class="row">\\n        <div class="col-lg-12">\\n            <h1 class="page-header">\\n                Dashboard\\n                <small></small>\\n            </h1>\\n            <ol class="breadcrumb">\\n                <li>\\n                    <i class="fa fa-dashboard"></i> <a href="\', escape=False)\nresponse.write(URL(a=\'tcc\', c=\'control\', f=\'dash\'))\nresponse.write(\'">Dashboard</a>\\n                </li>\\n                <li class="active"></li>\\n            </ol>\\n        </div>\\n    </div>\\n    <!-- /.row -->\\n</div>\\n<!-- /.container-fluid -->\\n\\n<div class="row">\\n    <div class="col-lg-3 col-md-6">\\n        <div class="panel panel-primary">\\n            <div class="panel-heading">\\n                <div class="row">\\n                    <div class="col-xs-3">\\n                        <i class="fa fa-windows fa-5x"></i>\\n                    </div>\\n                    <div class="col-xs-9 text-right">\\n                        <div class="huge">\', escape=False)\nresponse.write(count_windows)\nresponse.write(\'</div>\\n                        <div>Windows</div>\\n                    </div>\\n                </div>\\n            </div>\\n            <a href="#" onclick="openModal(1)">\\n                <div class="panel-footer">\\n                    <span class="pull-left">Ver Detalhes</span>\\n                    <span class="pull-right"><i class="fa fa-arrow-circle-right"></i></span>\\n                    <div class="clearfix"></div>\\n                </div>\\n            </a>\\n        </div>\\n    </div>\\n\\n    <div class="col-lg-3 col-md-6">\\n        <div class="panel panel-green">\\n            <div class="panel-heading">\\n                <div class="row">\\n                    <div class="col-xs-3">\\n                        <i class="fa fa-linux fa-5x"></i>\\n                    </div>\\n                    <div class="col-xs-9 text-right">\\n                        <div class="huge">\', escape=False)\nresponse.write(count_linux)\nresponse.write(\'</div>\\n                        <div>Linux</div>\\n                    </div>\\n                </div>\\n            </div>\\n            <a href="#" onclick="openModal(2)">\\n                <div class="panel-footer">\\n                    <span class="pull-left">Ver Detalhes</span>\\n                    <span class="pull-right"><i class="fa fa-arrow-circle-right"></i></span>\\n                    <div class="clearfix"></div>\\n                </div>\\n            </a>\\n        </div>\\n    </div>\\n    <div class="col-lg-3 col-md-6">\\n        <div class="panel panel-yellow">\\n            <div class="panel-heading">\\n                <div class="row">\\n                    <div class="col-xs-3">\\n                        <i class="fa fa-android fa-5x"></i>\\n                    </div>\\n                    <div class="col-xs-9 text-right">\\n                        <div class="huge">\', escape=False)\nresponse.write(count_outros)\nresponse.write(\'</div>\\n                        <div>Outros Dispositivos</div>\\n                    </div>\\n                </div>\\n            </div>\\n            <a href="#" onclick="openModal(3)">\\n                <div class="panel-footer">\\n                    <span class="pull-left">Ver Detalhes</span>\\n                    <span class="pull-right"><i class="fa fa-arrow-circle-right"></i></span>\\n                    <div class="clearfix"></div>\\n                </div>\\n            </a>\\n        </div>\\n    </div>\\n    <div class="col-lg-3 col-md-6">\\n        <div class="panel panel-red">\\n            <div class="panel-heading">\\n                <div class="row">\\n                    <div class="col-xs-3">\\n                        <i class="fa fa-warning fa-5x"></i>\\n                    </div>\\n                    <div class="col-xs-9 text-right">\\n                        <div class="huge">\', escape=False)\nresponse.write(count_portas)\nresponse.write(\'</div>\\n                        <div>Portas Abertas</div>\\n                    </div>\\n                </div>\\n            </div>\\n            <a href="#" onclick="openModal(4)">\\n                <div class="panel-footer">\\n                    <span class="pull-left">Ver Detalhes</span>\\n                    <span class="pull-right"><i class="fa fa-arrow-circle-right"></i></span>\\n                    <div class="clearfix"></div>\\n                </div>\\n            </a>\\n        </div>\\n    </div>\\n</div>\\n<br>\\n<br>\\n\\n<br><br><br>\\n\\n<div id="page-wrapper">\\n    <div class="container-fluid">\\n        <div class="row">\\n            <div class="col-lg-6">\\n                <h2>Informa\\xc3\\xa7\\xc3\\xa3o da Rede</h2>\\n                <div class="table-responsive">\\n                    <table class="table table-bordered table-hover">\\n                        <tbody>\\n                            <tr>\\n                                <th>Meu IP</th>\\n                                <td>\', escape=False)\nresponse.write(ips)\nresponse.write(\'</td>\\n                            </tr>\\n                            <tr>\\n                                <th>Gateway</th>\\n                                <td>\', escape=False)\nresponse.write(gatewayIp)\nresponse.write(\'</td>\\n                            </tr>\\n                            <tr>\\n                                <th>IP Externo</th>\\n                                <td>\', escape=False)\nresponse.write(ip_externo[3])\nresponse.write(\'</td>\\n                            </tr>\\n                            <tr>\\n                                <th>Quantidade Host</th>\\n                                <td><span id="qtde_host">\', escape=False)\nresponse.write(count_disp)\nresponse.write(\'</span></td>\\n                            </tr>\\n                        </tbody>\\n                    </table>\\n                </div>\\n            </div>\\n            <div class="col-lg-6">\\n                <h2>Servi\\xc3\\xa7os comuns associados as principais portas utilizadas</h2>\\n                <div class="table-responsive">\\n                    <table class="table table-bordered table-hover table-striped">\\n                        <thead>\\n                            <tr>\\n                                <th>Servi\\xc3\\xa7o/Porta</th>\\n                                <th>Hosts</th>\\n                            </tr>\\n                        </thead>\\n                        <tbody>\\n                            <tr>\\n                                <td>FTP/21</td>\\n                                <td>1265</td>\\n                            </tr>\\n                            <tr>\\n                                <td>SSH/22</td>\\n                                <td>261</td>\\n                            </tr>\\n                            <tr>\\n                                <td>Telnet/23</td>\\n                                <td>665</td>\\n                            </tr>\\n                            <tr>\\n                                <td>SMTP/25</td>\\n                                <td>9516</td>\\n                            </tr>\\n                            <tr>\\n                                <td>DNS/53</td>\\n                                <td>23</td>\\n                            </tr>\\n                            <tr>\\n                                <td>HTTP/80</td>\\n                                <td>421</td>\\n                            </tr>\\n                            <tr>\\n                                <td>RPC/111</td>\\n                                <td>1233</td>\\n                            </tr>\\n                            <tr>\\n                                <td>NetBIOS/137</td>\\n                                <td>1233</td>\\n                            </tr>\\n                            <tr>\\n                                <td>HTTPS/443</td>\\n                                <td>1233</td>\\n                            </tr>\\n                            <tr>\\n                                <td>SMB/445</td>\\n                                <td>1233</td>\\n                            </tr>\\n                            <tr>\\n                                <td>SIP/5060</td>\\n                                <td>1233</td>\\n                            </tr>\\n                            <tr>\\n                                <td>MySQL/3306</td>\\n                                <td>1233</td>\\n                            </tr>\\n                        </tbody>\\n                    </table>\\n                </div>\\n            </div>\\n        </div>\\n        <!-- /.row -->\\n    </div>\\n    <!-- /.container-fluid -->\\n</div>\\n<!-- /#page-wrapper -->\\n</div>\\n<!-- /#wrapper -->\\n\\n<!-- jQuery -->\\n<script src="js/jquery.js"></script>\\n<!-- Bootstrap Core JavaScript -->\\n<script src="js/bootstrap.min.js"></script>\\n\\n\\n\', escape=False)\nresponse.write(\'\\n        </div>\\n    </div>\\n\\n    <!-- jQuery -->\\n    <script src="\', escape=False)\nresponse.write(URL(a=\'tcc\', c=\'static\', f=\'js\'))\nresponse.write(\'/jquery.js"></script>\\n\\n    <!-- Bootstrap Core JavaScript -->\\n    <script src="\', escape=False)\nresponse.write(URL(a=\'tcc\', c=\'static\', f=\'js\'))\nresponse.write(\'/bootstrap.min.js"></script>\\n\\n</body>\\n\\n</html>\\n\\n\', escape=False)\nresponse.write(\'\\n\\n<script>\\n    function openModal(tipo) {\\n        if (tipo == 1) {\\n            $("#modalWindows").modal("show");\\n            return;\\n        }\\n\\n        if (tipo == 2) {\\n            $("#modalLinux").modal("show");\\n            return;\\n        }\\n\\n        if (tipo == 3) {\\n            $("#modalOutros").modal("show");\\n            return;\\n        }\\n\\n        else {\\n            $("#modalPortas").modal("show");\\n            return;\\n        }\\n    }\\n\\n</script>\\n\\n\', escape=False)'
p7
sS'snapshot'
p8
(dp9
S'exception'
p10
(dp11
S'__hash__'
p12
S"<method-wrapper '__hash__' of exceptions.IndexError object>"
p13
sS'__setattr__'
p14
S"<method-wrapper '__setattr__' of exceptions.IndexError object>"
p15
sS'__reduce_ex__'
p16
S'<built-in method __reduce_ex__ of exceptions.IndexError object>'
p17
sS'__getslice__'
p18
S"<method-wrapper '__getslice__' of exceptions.IndexError object>"
p19
sS'__getitem__'
p20
S"<method-wrapper '__getitem__' of exceptions.IndexError object>"
p21
sS'__setstate__'
p22
S'<built-in method __setstate__ of exceptions.IndexError object>'
p23
sS'args'
p24
S"('list index out of range',)"
p25
sS'__reduce__'
p26
S'<built-in method __reduce__ of exceptions.IndexError object>'
p27
sS'__str__'
p28
S"<method-wrapper '__str__' of exceptions.IndexError object>"
p29
sS'__format__'
p30
S'<built-in method __format__ of exceptions.IndexError object>'
p31
sS'__getattribute__'
p32
S"<method-wrapper '__getattribute__' of exceptions.IndexError object>"
p33
sS'__class__'
p34
S"<type 'exceptions.IndexError'>"
p35
sS'__unicode__'
p36
S'<built-in method __unicode__ of exceptions.IndexError object>'
p37
sS'__delattr__'
p38
S"<method-wrapper '__delattr__' of exceptions.IndexError object>"
p39
sS'__subclasshook__'
p40
S'<built-in method __subclasshook__ of type object>'
p41
sS'__repr__'
p42
S"<method-wrapper '__repr__' of exceptions.IndexError object>"
p43
sS'__dict__'
p44
S'{}'
p45
sS'__sizeof__'
p46
S'<built-in method __sizeof__ of exceptions.IndexError object>'
p47
sS'__doc__'
p48
S"'Sequence index out of range.'"
p49
sS'__init__'
p50
S"<method-wrapper '__init__' of exceptions.IndexError object>"
p51
sS'__new__'
p52
S'<built-in method __new__ of type object>'
p53
ssS'evalue'
p54
S'list index out of range'
p55
sS'request'
p56
cgluon.html
XML_unpickle
p57
(S's\x02Z\x00\x00<div><table><tr><td style="font-weight:bold;vertical-align:top;">ajax</td><td style="vertical-align:top;">:</td><td><div>False</div></td></tr><tr><td style="font-weight:bold;vertical-align:top;">application</td><td style="vertical-align:top;">:</td><td><div>tcc</div></td></tr><tr><td style="font-weight:bold;vertical-align:top;">args</td><td style="vertical-align:top;">:</td><td><div><table></table></div></td></tr><tr><td style="font-weight:bold;vertical-align:top;">cid</td><td style="vertical-align:top;">:</td><td><div>None</div></td></tr><tr><td style="font-weight:bold;vertical-align:top;">client</td><td style="vertical-align:top;">:</td><td><div>127.0.0.1</div></td></tr><tr><td style="font-weight:bold;vertical-align:top;">controller</td><td style="vertical-align:top;">:</td><td><div>control</div></td></tr><tr><td style="font-weight:bold;vertical-align:top;">cookies</td><td style="vertical-align:top;">:</td><td><div><table><tr><td style="font-weight:bold;vertical-align:top;">session_id_admin</td><td style="vertical-align:top;">:</td><td><div>127.0.0.1-a73eef8d-7684-4dca-872d-77569c111fdd<table><tr><td style="font-weight:bold;vertical-align:top;">comment</td><td style="vertical-align:top;">:</td><td><div></div></td></tr><tr><td style="font-weight:bold;vertical-align:top;">domain</td><td style="vertical-align:top;">:</td><td><div></div></td></tr><tr><td style="font-weight:bold;vertical-align:top;">expires</td><td style="vertical-align:top;">:</td><td><div></div></td></tr><tr><td style="font-weight:bold;vertical-align:top;">httponly</td><td style="vertical-align:top;">:</td><td><div></div></td></tr><tr><td style="font-weight:bold;vertical-align:top;">max-age</td><td style="vertical-align:top;">:</td><td><div></div></td></tr><tr><td style="font-weight:bold;vertical-align:top;">path</td><td style="vertical-align:top;">:</td><td><div></div></td></tr><tr><td style="font-weight:bold;vertical-align:top;">secure</td><td style="vertical-align:top;">:</td><td><div></div></td></tr><tr><td style="font-weight:bold;vertical-align:top;">version</td><td style="vertical-align:top;">:</td><td><div></div></td></tr></table></div></td></tr><tr><td style="font-weight:bold;vertical-align:top;">session_id_tcc</td><td style="vertical-align:top;">:</td><td><div>127.0.0.1-81fb0b45-6567-4cbf-b8de-6328f5cba8d9<table><tr><td style="font-weight:bold;vertical-align:top;">comment</td><td style="vertical-align:top;">:</td><td><div></div></td></tr><tr><td style="font-weight:bold;vertical-align:top;">domain</td><td style="vertical-align:top;">:</td><td><div></div></td></tr><tr><td style="font-weight:bold;vertical-align:top;">expires</td><td style="vertical-align:top;">:</td><td><div></div></td></tr><tr><td style="font-weight:bold;vertical-align:top;">httponly</td><td style="vertical-align:top;">:</td><td><div></div></td></tr><tr><td style="font-weight:bold;vertical-align:top;">max-age</td><td style="vertical-align:top;">:</td><td><div></div></td></tr><tr><td style="font-weight:bold;vertical-align:top;">path</td><td style="vertical-align:top;">:</td><td><div></div></td></tr><tr><td style="font-weight:bold;vertical-align:top;">secure</td><td style="vertical-align:top;">:</td><td><div></div></td></tr><tr><td style="font-weight:bold;vertical-align:top;">version</td><td style="vertical-align:top;">:</td><td><div></div></td></tr></table></div></td></tr><tr><td style="font-weight:bold;vertical-align:top;">session_id_welcome</td><td style="vertical-align:top;">:</td><td><div>127.0.0.1-61383029-2e57-48a1-978a-e9a21eff72c3<table><tr><td style="font-weight:bold;vertical-align:top;">comment</td><td style="vertical-align:top;">:</td><td><div></div></td></tr><tr><td style="font-weight:bold;vertical-align:top;">domain</td><td style="vertical-align:top;">:</td><td><div></div></td></tr><tr><td style="font-weight:bold;vertical-align:top;">expires</td><td style="vertical-align:top;">:</td><td><div></div></td></tr><tr><td style="font-weight:bold;vertical-align:top;">httponly</td><td style="vertical-align:top;">:</td><td><div></div></td></tr><tr><td style="font-weight:bold;vertical-align:top;">max-age</td><td style="vertical-align:top;">:</td><td><div></div></td></tr><tr><td style="font-weight:bold;vertical-align:top;">path</td><td style="vertical-align:top;">:</td><td><div></div></td></tr><tr><td style="font-weight:bold;vertical-align:top;">secure</td><td style="vertical-align:top;">:</td><td><div></div></td></tr><tr><td style="font-weight:bold;vertical-align:top;">version</td><td style="vertical-align:top;">:</td><td><div></div></td></tr></table></div></td></tr></table></div></td></tr><tr><td style="font-weight:bold;vertical-align:top;">env</td><td style="vertical-align:top;">:</td><td><div><table><tr><td style="font-weight:bold;vertical-align:top;">HTTP_ACCEPT</td><td style="vertical-align:top;">:</td><td><div>text/html,application/xhtml+xml,application/xml;q=0.9,*/*;q=0.8</div></td></tr><tr><td style="font-weight:bold;vertical-align:top;">HTTP_ACCEPT_ENCODING</td><td style="vertical-align:top;">:</td><td><div>gzip, deflate</div></td></tr><tr><td style="font-weight:bold;vertical-align:top;">HTTP_ACCEPT_LANGUAGE</td><td style="vertical-align:top;">:</td><td><div>en-US,en;q=0.5</div></td></tr><tr><td style="font-weight:bold;vertical-align:top;">HTTP_CACHE_CONTROL</td><td style="vertical-align:top;">:</td><td><div>max-age=0</div></td></tr><tr><td style="font-weight:bold;vertical-align:top;">HTTP_CONNECTION</td><td style="vertical-align:top;">:</td><td><div>keep-alive</div></td></tr><tr><td style="font-weight:bold;vertical-align:top;">HTTP_COOKIE</td><td style="vertical-align:top;">:</td><td><div>session_id_welcome=127.0.0.1-61383029-2e57-48a1-978a-e9a21eff72c3; session_id_tcc=127.0.0.1-81fb0b45-6567-4cbf-b8de-6328f5cba8d9; session_id_admin=127.0.0.1-a73eef8d-7684-4dca-872d-77569c111fdd</div></td></tr><tr><td style="font-weight:bold;vertical-align:top;">HTTP_HOST</td><td style="vertical-align:top;">:</td><td><div>127.0.0.1:8000</div></td></tr><tr><td style="font-weight:bold;vertical-align:top;">HTTP_REFERER</td><td style="vertical-align:top;">:</td><td><div>http://127.0.0.1:8000/tcc/control/relatorio</div></td></tr><tr><td style="font-weight:bold;vertical-align:top;">HTTP_USER_AGENT</td><td style="vertical-align:top;">:</td><td><div>Mozilla/5.0 (X11; Linux x86_64; rv:45.0) Gecko/20100101 Firefox/45.0</div></td></tr><tr><td style="font-weight:bold;vertical-align:top;">PATH_INFO</td><td style="vertical-align:top;">:</td><td><div>/tcc/control/dash</div></td></tr><tr><td style="font-weight:bold;vertical-align:top;">QUERY_STRING</td><td style="vertical-align:top;">:</td><td><div></div></td></tr><tr><td style="font-weight:bold;vertical-align:top;">REMOTE_ADDR</td><td style="vertical-align:top;">:</td><td><div>127.0.0.1</div></td></tr><tr><td style="font-weight:bold;vertical-align:top;">REMOTE_PORT</td><td style="vertical-align:top;">:</td><td><div>42030</div></td></tr><tr><td style="font-weight:bold;vertical-align:top;">REQUEST_METHOD</td><td style="vertical-align:top;">:</td><td><div>GET</div></td></tr><tr><td style="font-weight:bold;vertical-align:top;">SCRIPT_NAME</td><td style="vertical-align:top;">:</td><td><div></div></td></tr><tr><td style="font-weight:bold;vertical-align:top;">SERVER_NAME</td><td style="vertical-align:top;">:</td><td><div>kali</div></td></tr><tr><td style="font-weight:bold;vertical-align:top;">SERVER_PORT</td><td style="vertical-align:top;">:</td><td><div>8000</div></td></tr><tr><td style="font-weight:bold;vertical-align:top;">SERVER_PROTOCOL</td><td style="vertical-align:top;">:</td><td><div>HTTP/1.1</div></td></tr><tr><td style="font-weight:bold;vertical-align:top;">SERVER_SOFTWARE</td><td style="vertical-align:top;">:</td><td><div>Rocket 1.2.6</div></td></tr><tr><td style="font-weight:bold;vertical-align:top;">app_folders</td><td style="vertical-align:top;">:</td><td><div>set([&#x27;/var/www/web2py/applications/welcome/&#x27;, &#x27;/var/www/web2py/applications/tcc/&#x27;, &#x27;/var/www/web2py/applications/admin/&#x27;])</div></td></tr><tr><td style="font-weight:bold;vertical-align:top;">applications_parent</td><td style="vertical-align:top;">:</td><td><div>/var/www/web2py</div></td></tr><tr><td style="font-weight:bold;vertical-align:top;">cmd_args</td><td style="vertical-align:top;">:</td><td><div><table></table></div></td></tr><tr><td style="font-weight:bold;vertical-align:top;">cmd_options</td><td style="vertical-align:top;">:</td><td><div>&lt;Values at 0x7fa6370a2d40: {&#x27;verbose&#x27;: False, &#x27;ip&#x27;: &#x27;127.0.0.1&#x27;, &#x27;debuglevel&#x27;: 30, &#x27;with_scheduler&#x27;: False, &#x27;shutdown_timeout&#x27;: 5, &#x27;taskbar&#x27;: False, &#x27;with_coverage&#x27;: False, &#x27;pid_filename&#x27;: &#x27;httpserver.pid&#x27;, &#x27;maxthreads&#x27;: None, &#x27;softcron&#x27;: False, &#x27;server_name&#x27;: &#x27;kali&#x27;, &#x27;bpython&#x27;: False, &#x27;nogui&#x27;: False, &#x27;port&#x27;: 8000, &#x27;print_errors&#x27;: False, &#x27;extcron&#x27;: False, &#x27;runcron&#x27;: False, &#x27;run_system_tests&#x27;: False, &#x27;test&#x27;: None, &#x27;folder&#x27;: &#x27;/var/www/web2py&#x27;, &#x27;config&#x27;: &#x27;&#x27;, &#x27;minthreads&#x27;: None, &#x27;shell&#x27;: None, &#x27;run&#x27;: &#x27;&#x27;, &#x27;log_filename&#x27;: &#x27;httpserver.log&#x27;, &#x27;profiler_dir&#x27;: None, &#x27;args&#x27;: [&#x27;&#x27;], &#x27;socket_timeout&#x27;: 5, &#x27;ssl_ca_certificate&#x27;: None, &#x27;scheduler&#x27;: None, &#x27;interfaces&#x27;: None, &#x27;ssl_private_key&#x27;: &#x27;&#x27;, &#x27;gae&#x27;: None, &#x27;password&#x27;: &#x27;******&#x27;, &#x27;request_queue_size&#x27;: 5, &#x27;ssl_certificate&#x27;: &#x27;&#x27;, &#x27;cronjob&#x27;: False, &#x27;numthreads&#x27;: None, &#x27;quiet&#x27;: False, &#x27;import_models&#x27;: False, &#x27;timeout&#x27;: 10, &#x27;plain&#x27;: False, &#x27;nobanner&#x27;: False}&gt;</div></td></tr><tr><td style="font-weight:bold;vertical-align:top;">db_sessions</td><td style="vertical-align:top;">:</td><td><div>set([])</div></td></tr><tr><td style="font-weight:bold;vertical-align:top;">debugging</td><td style="vertical-align:top;">:</td><td><div>False</div></td></tr><tr><td style="font-weight:bold;vertical-align:top;">gluon_parent</td><td style="vertical-align:top;">:</td><td><div>/var/www/web2py</div></td></tr><tr><td style="font-weight:bold;vertical-align:top;">http_accept</td><td style="vertical-align:top;">:</td><td><div>text/html,application/xhtml+xml,application/xml;q=0.9,*/*;q=0.8</div></td></tr><tr><td style="font-weight:bold;vertical-align:top;">http_accept_encoding</td><td style="vertical-align:top;">:</td><td><div>gzip, deflate</div></td></tr><tr><td style="font-weight:bold;vertical-align:top;">http_accept_language</td><td style="vertical-align:top;">:</td><td><div>en-US,en;q=0.5</div></td></tr><tr><td style="font-weight:bold;vertical-align:top;">http_cache_control</td><td style="vertical-align:top;">:</td><td><div>max-age=0</div></td></tr><tr><td style="font-weight:bold;vertical-align:top;">http_connection</td><td style="vertical-align:top;">:</td><td><div>keep-alive</div></td></tr><tr><td style="font-weight:bold;vertical-align:top;">http_cookie</td><td style="vertical-align:top;">:</td><td><div>session_id_welcome=127.0.0.1-61383029-2e57-48a1-978a-e9a21eff72c3; session_id_tcc=127.0.0.1-81fb0b45-6567-4cbf-b8de-6328f5cba8d9; session_id_admin=127.0.0.1-a73eef8d-7684-4dca-872d-77569c111fdd</div></td></tr><tr><td style="font-weight:bold;vertical-align:top;">http_host</td><td style="vertical-align:top;">:</td><td><div>127.0.0.1:8000</div></td></tr><tr><td style="font-weight:bold;vertical-align:top;">http_referer</td><td style="vertical-align:top;">:</td><td><div>http://127.0.0.1:8000/tcc/control/relatorio</div></td></tr><tr><td style="font-weight:bold;vertical-align:top;">http_user_agent</td><td style="vertical-align:top;">:</td><td><div>Mozilla/5.0 (X11; Linux x86_64; rv:45.0) Gecko/20100101 Firefox/45.0</div></td></tr><tr><td style="font-weight:bold;vertical-align:top;">is_jython</td><td style="vertical-align:top;">:</td><td><div>False</div></td></tr><tr><td style="font-weight:bold;vertical-align:top;">is_pypy</td><td style="vertical-align:top;">:</td><td><div>False</div></td></tr><tr><td style="font-weight:bold;vertical-align:top;">is_source</td><td style="vertical-align:top;">:</td><td><div>True</div></td></tr><tr><td style="font-weight:bold;vertical-align:top;">local_hosts</td><td style="vertical-align:top;">:</td><td><div><table><tr><td><div>kali</div></td></tr><tr><td><div>::1</div></td></tr><tr><td><div>127.0.1.1</div></td></tr><tr><td><div>::ffff:127.0.0.1</div></td></tr><tr><td><div>127.0.0.1</div></td></tr></table></div></td></tr><tr><td style="font-weight:bold;vertical-align:top;">path_info</td><td style="vertical-align:top;">:</td><td><div>/tcc/control/dash</div></td></tr><tr><td style="font-weight:bold;vertical-align:top;">query_string</td><td style="vertical-align:top;">:</td><td><div></div></td></tr><tr><td style="font-weight:bold;vertical-align:top;">remote_addr</td><td style="vertical-align:top;">:</td><td><div>127.0.0.1</div></td></tr><tr><td style="font-weight:bold;vertical-align:top;">remote_port</td><td style="vertical-align:top;">:</td><td><div>42030</div></td></tr><tr><td style="font-weight:bold;vertical-align:top;">request_method</td><td style="vertical-align:top;">:</td><td><div>GET</div></td></tr><tr><td style="font-weight:bold;vertical-align:top;">request_uri</td><td style="vertical-align:top;">:</td><td><div>/tcc/control/dash</div></td></tr><tr><td style="font-weight:bold;vertical-align:top;">script_name</td><td style="vertical-align:top;">:</td><td><div></div></td></tr><tr><td style="font-weight:bold;vertical-align:top;">server_name</td><td style="vertical-align:top;">:</td><td><div>kali</div></td></tr><tr><td style="font-weight:bold;vertical-align:top;">server_port</td><td style="vertical-align:top;">:</td><td><div>8000</div></td></tr><tr><td style="font-weight:bold;vertical-align:top;">server_protocol</td><td style="vertical-align:top;">:</td><td><div>HTTP/1.1</div></td></tr><tr><td style="font-weight:bold;vertical-align:top;">server_software</td><td style="vertical-align:top;">:</td><td><div>Rocket 1.2.6</div></td></tr><tr><td style="font-weight:bold;vertical-align:top;">web2py_path</td><td style="vertical-align:top;">:</td><td><div>/var/www/web2py</div></td></tr><tr><td style="font-weight:bold;vertical-align:top;">web2py_version</td><td style="vertical-align:top;">:</td><td><div>2.14.6-stable+timestamp.2016.05.10.00.21.47</div></td></tr><tr><td style="font-weight:bold;vertical-align:top;">wsgi.errors</td><td style="vertical-align:top;">:</td><td><div>&lt;open file &#x27;&lt;stderr&gt;&#x27;, mode &#x27;w&#x27; at 0x7fa638e411e0&gt;</div></td></tr><tr><td style="font-weight:bold;vertical-align:top;">wsgi.file_wrapper</td><td style="vertical-align:top;">:</td><td><div>&lt;class wsgiref.util.FileWrapper at 0x7fa6371418d8&gt;</div></td></tr><tr><td style="font-weight:bold;vertical-align:top;">wsgi.input</td><td style="vertical-align:top;">:</td><td><div>&lt;socket._fileobject object at 0x7fa5eea9b650&gt;</div></td></tr><tr><td style="font-weight:bold;vertical-align:top;">wsgi.multiprocess</td><td style="vertical-align:top;">:</td><td><div>False</div></td></tr><tr><td style="font-weight:bold;vertical-align:top;">wsgi.multithread</td><td style="vertical-align:top;">:</td><td><div>True</div></td></tr><tr><td style="font-weight:bold;vertical-align:top;">wsgi.run_once</td><td style="vertical-align:top;">:</td><td><div>False</div></td></tr><tr><td style="font-weight:bold;vertical-align:top;">wsgi.url_scheme</td><td style="vertical-align:top;">:</td><td><div>http</div></td></tr><tr><td style="font-weight:bold;vertical-align:top;">wsgi.version</td><td style="vertical-align:top;">:</td><td><div><table><tr><td><div>1</div></td></tr><tr><td><div>0</div></td></tr></table></div></td></tr><tr><td style="font-weight:bold;vertical-align:top;">wsgi_errors</td><td style="vertical-align:top;">:</td><td><div>&lt;open file &#x27;&lt;stderr&gt;&#x27;, mode &#x27;w&#x27; at 0x7fa638e411e0&gt;</div></td></tr><tr><td style="font-weight:bold;vertical-align:top;">wsgi_file_wrapper</td><td style="vertical-align:top;">:</td><td><div>&lt;class wsgiref.util.FileWrapper at 0x7fa6371418d8&gt;</div></td></tr><tr><td style="font-weight:bold;vertical-align:top;">wsgi_input</td><td style="vertical-align:top;">:</td><td><div>&lt;socket._fileobject object at 0x7fa5eea9b650&gt;</div></td></tr><tr><td style="font-weight:bold;vertical-align:top;">wsgi_multiprocess</td><td style="vertical-align:top;">:</td><td><div>False</div></td></tr><tr><td style="font-weight:bold;vertical-align:top;">wsgi_multithread</td><td style="vertical-align:top;">:</td><td><div>True</div></td></tr><tr><td style="font-weight:bold;vertical-align:top;">wsgi_run_once</td><td style="vertical-align:top;">:</td><td><div>False</div></td></tr><tr><td style="font-weight:bold;vertical-align:top;">wsgi_url_scheme</td><td style="vertical-align:top;">:</td><td><div>http</div></td></tr><tr><td style="font-weight:bold;vertical-align:top;">wsgi_version</td><td style="vertical-align:top;">:</td><td><div><table><tr><td><div>1</div></td></tr><tr><td><div>0</div></td></tr></table></div></td></tr></table></div></td></tr><tr><td style="font-weight:bold;vertical-align:top;">extension</td><td style="vertical-align:top;">:</td><td><div>html</div></td></tr><tr><td style="font-weight:bold;vertical-align:top;">folder</td><td style="vertical-align:top;">:</td><td><div>/var/www/web2py/applications/tcc/</div></td></tr><tr><td style="font-weight:bold;vertical-align:top;">function</td><td style="vertical-align:top;">:</td><td><div>dash</div></td></tr><tr><td style="font-weight:bold;vertical-align:top;">global_settings</td><td style="vertical-align:top;">:</td><td><div><table><tr><td style="font-weight:bold;vertical-align:top;">app_folders</td><td style="vertical-align:top;">:</td><td><div>set([&#x27;/var/www/web2py/applications/welcome/&#x27;, &#x27;/var/www/web2py/applications/tcc/&#x27;, &#x27;/var/www/web2py/applications/admin/&#x27;])</div></td></tr><tr><td style="font-weight:bold;vertical-align:top;">applications_parent</td><td style="vertical-align:top;">:</td><td><div>/var/www/web2py</div></td></tr><tr><td style="font-weight:bold;vertical-align:top;">cmd_args</td><td style="vertical-align:top;">:</td><td><div><table></table></div></td></tr><tr><td style="font-weight:bold;vertical-align:top;">cmd_options</td><td style="vertical-align:top;">:</td><td><div>&lt;Values at 0x7fa6370a2d40: {&#x27;verbose&#x27;: False, &#x27;ip&#x27;: &#x27;127.0.0.1&#x27;, &#x27;debuglevel&#x27;: 30, &#x27;with_scheduler&#x27;: False, &#x27;shutdown_timeout&#x27;: 5, &#x27;taskbar&#x27;: False, &#x27;with_coverage&#x27;: False, &#x27;pid_filename&#x27;: &#x27;httpserver.pid&#x27;, &#x27;maxthreads&#x27;: None, &#x27;softcron&#x27;: False, &#x27;server_name&#x27;: &#x27;kali&#x27;, &#x27;bpython&#x27;: False, &#x27;nogui&#x27;: False, &#x27;port&#x27;: 8000, &#x27;print_errors&#x27;: False, &#x27;extcron&#x27;: False, &#x27;runcron&#x27;: False, &#x27;run_system_tests&#x27;: False, &#x27;test&#x27;: None, &#x27;folder&#x27;: &#x27;/var/www/web2py&#x27;, &#x27;config&#x27;: &#x27;&#x27;, &#x27;minthreads&#x27;: None, &#x27;shell&#x27;: None, &#x27;run&#x27;: &#x27;&#x27;, &#x27;log_filename&#x27;: &#x27;httpserver.log&#x27;, &#x27;profiler_dir&#x27;: None, &#x27;args&#x27;: [&#x27;&#x27;], &#x27;socket_timeout&#x27;: 5, &#x27;ssl_ca_certificate&#x27;: None, &#x27;scheduler&#x27;: None, &#x27;interfaces&#x27;: None, &#x27;ssl_private_key&#x27;: &#x27;&#x27;, &#x27;gae&#x27;: None, &#x27;password&#x27;: &#x27;******&#x27;, &#x27;request_queue_size&#x27;: 5, &#x27;ssl_certificate&#x27;: &#x27;&#x27;, &#x27;cronjob&#x27;: False, &#x27;numthreads&#x27;: None, &#x27;quiet&#x27;: False, &#x27;import_models&#x27;: False, &#x27;timeout&#x27;: 10, &#x27;plain&#x27;: False, &#x27;nobanner&#x27;: False}&gt;</div></td></tr><tr><td style="font-weight:bold;vertical-align:top;">db_sessions</td><td style="vertical-align:top;">:</td><td><div>set([])</div></td></tr><tr><td style="font-weight:bold;vertical-align:top;">debugging</td><td style="vertical-align:top;">:</td><td><div>False</div></td></tr><tr><td style="font-weight:bold;vertical-align:top;">gluon_parent</td><td style="vertical-align:top;">:</td><td><div>/var/www/web2py</div></td></tr><tr><td style="font-weight:bold;vertical-align:top;">is_jython</td><td style="vertical-align:top;">:</td><td><div>False</div></td></tr><tr><td style="font-weight:bold;vertical-align:top;">is_pypy</td><td style="vertical-align:top;">:</td><td><div>False</div></td></tr><tr><td style="font-weight:bold;vertical-align:top;">is_source</td><td style="vertical-align:top;">:</td><td><div>True</div></td></tr><tr><td style="font-weight:bold;vertical-align:top;">local_hosts</td><td style="vertical-align:top;">:</td><td><div><table><tr><td><div>kali</div></td></tr><tr><td><div>::1</div></td></tr><tr><td><div>127.0.1.1</div></td></tr><tr><td><div>::ffff:127.0.0.1</div></td></tr><tr><td><div>127.0.0.1</div></td></tr></table></div></td></tr><tr><td style="font-weight:bold;vertical-align:top;">web2py_version</td><td style="vertical-align:top;">:</td><td><div>2.14.6-stable+timestamp.2016.05.10.00.21.47</div></td></tr></table></div></td></tr><tr><td style="font-weight:bold;vertical-align:top;">is_https</td><td style="vertical-align:top;">:</td><td><div>False</div></td></tr><tr><td style="font-weight:bold;vertical-align:top;">is_local</td><td style="vertical-align:top;">:</td><td><div>True</div></td></tr><tr><td style="font-weight:bold;vertical-align:top;">is_restful</td><td style="vertical-align:top;">:</td><td><div>False</div></td></tr><tr><td style="font-weight:bold;vertical-align:top;">is_scheduler</td><td style="vertical-align:top;">:</td><td><div>False</div></td></tr><tr><td style="font-weight:bold;vertical-align:top;">is_shell</td><td style="vertical-align:top;">:</td><td><div>False</div></td></tr><tr><td style="font-weight:bold;vertical-align:top;">now</td><td style="vertical-align:top;">:</td><td><div>datetime.datetime(2017, 8, 31, 18, 40, 23, 939137)</div></td></tr><tr><td style="font-weight:bold;vertical-align:top;">raw_args</td><td style="vertical-align:top;">:</td><td><div></div></td></tr><tr><td style="font-weight:bold;vertical-align:top;">raw_extension</td><td style="vertical-align:top;">:</td><td><div>None</div></td></tr><tr><td style="font-weight:bold;vertical-align:top;">url</td><td style="vertical-align:top;">:</td><td><div>/tcc/control/dash</div></td></tr><tr><td style="font-weight:bold;vertical-align:top;">utcnow</td><td style="vertical-align:top;">:</td><td><div>datetime.datetime(2017, 8, 31, 22, 40, 23, 939156)</div></td></tr><tr><td style="font-weight:bold;vertical-align:top;">wsgi</td><td style="vertical-align:top;">:</td><td><div>&lt;gluon.main.LazyWSGI object at 0x7fa5eeaa1690&gt;</div></td></tr></table></div>'
tRp58
sS'frames'
p59
(lp60
(dp61
S'file'
p62
S'/var/www/web2py/gluon/restricted.py'
p63
sS'dump'
p64
(dp65
S'environment'
p66
S"{'A': <class 'gluon.html.A'>, 'ANY_OF': <class 'gluon.validators.ANY_OF'>, 'ASSIGNJS': <function ASSIGNJS>, 'Auth': <class 'gluon.tools.Auth'>, 'B': <class 'gluon.html.B'>, 'BEAUTIFY': <class 'gluon.html.BEAUTIFY'>, 'BODY': <class 'gluon.html.BODY'>, 'BR': <class 'gluon.html.BR'>, 'BUTTON': <class 'gluon.html.BUTTON'>, 'CAT': <class 'gluon.html.CAT'>, ...}"
p67
sS'ccode'
p68
S'<code object <module> at 0x7fa5eea9bbb0, file "/...lications/tcc/views/estrutura/dash.html", line 1>'
p69
ssS'lnum'
p70
I227
sS'lines'
p71
(dp72
I224
S'            ccode = code'
p73
sI225
S'        else:'
p74
sI226
S'            ccode = compile2(code, layer)'
p75
sI227
S'        exec ccode in environment'
p76
sI228
S'    except HTTP:'
p77
sI229
S'        raise'
p78
sI230
S'    except RestrictedError:'
p79
sI231
S'        # do not encapsulate (obfuscate) the original RestrictedError'
p80
sI222
S'    try:'
p81
sI223
S'        if isinstance(code, types.CodeType):'
p82
ssS'call'
p83
S'(code=\'response.write(\\\'<!DOCTYPE html>\\\\n<html lang="en"...        }\\\\n    }\\\\n\\\\n</script>\\\\n\\\\n\\\', escape=False)\', environment={\'A\': <class \'gluon.html.A\'>, \'ANY_OF\': <class \'gluon.validators.ANY_OF\'>, \'ASSIGNJS\': <function ASSIGNJS>, \'Auth\': <class \'gluon.tools.Auth\'>, \'B\': <class \'gluon.html.B\'>, \'BEAUTIFY\': <class \'gluon.html.BEAUTIFY\'>, \'BODY\': <class \'gluon.html.BODY\'>, \'BR\': <class \'gluon.html.BR\'>, \'BUTTON\': <class \'gluon.html.BUTTON\'>, \'CAT\': <class \'gluon.html.CAT\'>, ...}, layer=\'/var/www/web2py/applications/tcc/views/estrutura/dash.html\')'
p84
sS'func'
p85
S'restricted'
p86
sa(dp87
g62
S'/var/www/web2py/applications/tcc/views/estrutura/dash.html'
p88
sg64
(dp89
S'div'
p90
S'undefined'
p91
ssg70
I72
sg71
(dp92
I64
S'response.write(count_outros)'
p93
sI65
S'response.write(\'</div>\\n                        <div>Outros Dispositivos</div>\\n                    </div>\\n                </div>\\n            </div>\\n            <a href="#" onclick="openModal(3)">\\n                <div class="panel-footer">\\n                    <span class="pull-left">Ver Detalhes</span>\\n                    <span class="pull-right"><i class="fa fa-arrow-circle-right"></i></span>\\n                    <div class="clearfix"></div>\\n                </div>\\n            </a>\\n        </div>\\n    </div>\\n    <div class="col-lg-3 col-md-6">\\n        <div class="panel panel-red">\\n            <div class="panel-heading">\\n                <div class="row">\\n                    <div class="col-xs-3">\\n                        <i class="fa fa-warning fa-5x"></i>\\n                    </div>\\n                    <div class="col-xs-9 text-right">\\n                        <div class="huge">\', escape=False)'
p94
sI66
S'response.write(count_portas)'
p95
sI67
S'response.write(\'</div>\\n                        <div>Portas Abertas</div>\\n                    </div>\\n                </div>\\n            </div>\\n            <a href="#" onclick="openModal(4)">\\n                <div class="panel-footer">\\n                    <span class="pull-left">Ver Detalhes</span>\\n                    <span class="pull-right"><i class="fa fa-arrow-circle-right"></i></span>\\n                    <div class="clearfix"></div>\\n                </div>\\n            </a>\\n        </div>\\n    </div>\\n</div>\\n<br>\\n<br>\\n\\n<br><br><br>\\n\\n<div id="page-wrapper">\\n    <div class="container-fluid">\\n        <div class="row">\\n            <div class="col-lg-6">\\n                <h2>Informa\\xc3\\xa7\\xc3\\xa3o da Rede</h2>\\n                <div class="table-responsive">\\n                    <table class="table table-bordered table-hover">\\n                        <tbody>\\n                            <tr>\\n                                <th>Meu IP</th>\\n                                <td>\', escape=False)'
p96
sI68
S'response.write(ips)'
p97
sI69
S"response.write('</td>\\n                            </tr>\\n                            <tr>\\n                                <th>Gateway</th>\\n                                <td>', escape=False)"
p98
sI70
S'response.write(gatewayIp)'
p99
sI71
S"response.write('</td>\\n                            </tr>\\n                            <tr>\\n                                <th>IP Externo</th>\\n                                <td>', escape=False)"
p100
sI72
S'response.write(ip_externo[3])'
p101
sI73
S'response.write(\'</td>\\n                            </tr>\\n                            <tr>\\n                                <th>Quantidade Host</th>\\n                                <td><span id="qtde_host">\', escape=False)'
p102
sI74
S'response.write(count_disp)'
p103
sI75
S'response.write(\'</span></td>\\n                            </tr>\\n                        </tbody>\\n                    </table>\\n                </div>\\n            </div>\\n            <div class="col-lg-6">\\n                <h2>Servi\\xc3\\xa7os comuns associados as principais portas utilizadas</h2>\\n                <div class="table-responsive">\\n                    <table class="table table-bordered table-hover table-striped">\\n                        <thead>\\n                            <tr>\\n                                <th>Servi\\xc3\\xa7o/Porta</th>\\n                                <th>Hosts</th>\\n                            </tr>\\n                        </thead>\\n                        <tbody>\\n                            <tr>\\n                                <td>FTP/21</td>\\n                                <td>1265</td>\\n                            </tr>\\n                            <tr>\\n                                <td>SSH/22</td>\\n                                <td>261</td>\\n                            </tr>\\n                            <tr>\\n                                <td>Telnet/23</td>\\n                                <td>665</td>\\n                            </tr>\\n                            <tr>\\n                                <td>SMTP/25</td>\\n                                <td>9516</td>\\n                            </tr>\\n                            <tr>\\n                                <td>DNS/53</td>\\n                                <td>23</td>\\n                            </tr>\\n                            <tr>\\n                                <td>HTTP/80</td>\\n                                <td>421</td>\\n                            </tr>\\n                            <tr>\\n                                <td>RPC/111</td>\\n                                <td>1233</td>\\n                            </tr>\\n                            <tr>\\n                                <td>NetBIOS/137</td>\\n                                <td>1233</td>\\n                            </tr>\\n                            <tr>\\n                                <td>HTTPS/443</td>\\n                                <td>1233</td>\\n                            </tr>\\n                            <tr>\\n                                <td>SMB/445</td>\\n                                <td>1233</td>\\n                            </tr>\\n                            <tr>\\n                                <td>SIP/5060</td>\\n                                <td>1233</td>\\n                            </tr>\\n                            <tr>\\n                                <td>MySQL/3306</td>\\n                                <td>1233</td>\\n                            </tr>\\n                        </tbody>\\n                    </table>\\n                </div>\\n            </div>\\n        </div>\\n        <!-- /.row -->\\n    </div>\\n    <!-- /.container-fluid -->\\n</div>\\n<!-- /#page-wrapper -->\\n</div>\\n<!-- /#wrapper -->\\n\\n<!-- jQuery -->\\n<script src="js/jquery.js"></script>\\n<!-- Bootstrap Core JavaScript -->\\n<script src="js/bootstrap.min.js"></script>\\n\\n\\n\', escape=False)'
p104
sI76
S'response.write(\'\\n        </div>\\n    </div>\\n\\n    <!-- jQuery -->\\n    <script src="\', escape=False)'
p105
sI77
S"response.write(URL(a='tcc', c='static', f='js'))"
p106
sI78
S'response.write(\'/jquery.js"></script>\\n\\n    <!-- Bootstrap Core JavaScript -->\\n    <script src="\', escape=False)'
p107
sI79
S"response.write(URL(a='tcc', c='static', f='js'))"
p108
sI80
S'response.write(\'/bootstrap.min.js"></script>\\n\\n</body>\\n\\n</html>\\n\\n\', escape=False)'
p109
sI81
S'response.write(\'\\n\\n<script>\\n    function openModal(tipo) {\\n        if (tipo == 1) {\\n            $("#modalWindows").modal("show");\\n            return;\\n        }\\n\\n        if (tipo == 2) {\\n            $("#modalLinux").modal("show");\\n            return;\\n        }\\n\\n        if (tipo == 3) {\\n            $("#modalOutros").modal("show");\\n            return;\\n        }\\n\\n        else {\\n            $("#modalPortas").modal("show");\\n            return;\\n        }\\n    }\\n\\n</script>\\n\\n\', escape=False)'
p110
sI63
S'response.write(\'</div>\\n                        <div>Linux</div>\\n                    </div>\\n                </div>\\n            </div>\\n            <a href="#" onclick="openModal(2)">\\n                <div class="panel-footer">\\n                    <span class="pull-left">Ver Detalhes</span>\\n                    <span class="pull-right"><i class="fa fa-arrow-circle-right"></i></span>\\n                    <div class="clearfix"></div>\\n                </div>\\n            </a>\\n        </div>\\n    </div>\\n    <div class="col-lg-3 col-md-6">\\n        <div class="panel panel-yellow">\\n            <div class="panel-heading">\\n                <div class="row">\\n                    <div class="col-xs-3">\\n                        <i class="fa fa-android fa-5x"></i>\\n                    </div>\\n                    <div class="col-xs-9 text-right">\\n                        <div class="huge">\', escape=False)'
p111
ssg83
S'()'
p112
sg85
S'<module>'
p113
sasS'pyver'
p114
S'Python 2.7.13: /usr/bin/python (prefix: /usr)'
p115
sS'session'
p116
g57
(S's\x1a\x00\x00\x00<div><table></table></div>'
tRp117
sS'etype'
p118
S"<type 'exceptions.IndexError'>"
p119
sS'date'
p120
S'Thu Aug 31 18:40:25 2017'
p121
sS'response'
p122
g57
(S's\x11\x16\x00\x00<div><table><tr><td style="font-weight:bold;vertical-align:top;">body</td><td style="vertical-align:top;">:</td><td><div>&lt;cStringIO.StringO object at 0x7fa5eef22ce0&gt;</div></td></tr><tr><td style="font-weight:bold;vertical-align:top;">cookies</td><td style="vertical-align:top;">:</td><td><div><table><tr><td style="font-weight:bold;vertical-align:top;">session_id_tcc</td><td style="vertical-align:top;">:</td><td><div>127.0.0.1-31e8dae5-d53c-458b-a1a7-09ed61a72211<table><tr><td style="font-weight:bold;vertical-align:top;">comment</td><td style="vertical-align:top;">:</td><td><div></div></td></tr><tr><td style="font-weight:bold;vertical-align:top;">domain</td><td style="vertical-align:top;">:</td><td><div></div></td></tr><tr><td style="font-weight:bold;vertical-align:top;">expires</td><td style="vertical-align:top;">:</td><td><div></div></td></tr><tr><td style="font-weight:bold;vertical-align:top;">httponly</td><td style="vertical-align:top;">:</td><td><div></div></td></tr><tr><td style="font-weight:bold;vertical-align:top;">max-age</td><td style="vertical-align:top;">:</td><td><div></div></td></tr><tr><td style="font-weight:bold;vertical-align:top;">path</td><td style="vertical-align:top;">:</td><td><div>/</div></td></tr><tr><td style="font-weight:bold;vertical-align:top;">secure</td><td style="vertical-align:top;">:</td><td><div></div></td></tr><tr><td style="font-weight:bold;vertical-align:top;">version</td><td style="vertical-align:top;">:</td><td><div></div></td></tr></table></div></td></tr></table></div></td></tr><tr><td style="font-weight:bold;vertical-align:top;">delimiters</td><td style="vertical-align:top;">:</td><td><div><table><tr><td><div>{{</div></td></tr><tr><td><div>}}</div></td></tr></table></div></td></tr><tr><td style="font-weight:bold;vertical-align:top;">files</td><td style="vertical-align:top;">:</td><td><div><table></table></div></td></tr><tr><td style="font-weight:bold;vertical-align:top;">flash</td><td style="vertical-align:top;">:</td><td><div></div></td></tr><tr><td style="font-weight:bold;vertical-align:top;">form_label_separator</td><td style="vertical-align:top;">:</td><td><div>: </div></td></tr><tr><td style="font-weight:bold;vertical-align:top;">formstyle</td><td style="vertical-align:top;">:</td><td><div>table3cols</div></td></tr><tr><td style="font-weight:bold;vertical-align:top;">generic_patterns</td><td style="vertical-align:top;">:</td><td><div><table><tr><td><div>*</div></td></tr></table></div></td></tr><tr><td style="font-weight:bold;vertical-align:top;">headers</td><td style="vertical-align:top;">:</td><td><div><table><tr><td style="font-weight:bold;vertical-align:top;">X-Powered-By</td><td style="vertical-align:top;">:</td><td><div>web2py</div></td></tr></table></div></td></tr><tr><td style="font-weight:bold;vertical-align:top;">menu</td><td style="vertical-align:top;">:</td><td><div><table></table></div></td></tr><tr><td style="font-weight:bold;vertical-align:top;">meta</td><td style="vertical-align:top;">:</td><td><div><table></table></div></td></tr><tr><td style="font-weight:bold;vertical-align:top;">models_to_run</td><td style="vertical-align:top;">:</td><td><div><table><tr><td><div>^\\w+\\.py$</div></td></tr><tr><td><div>^control/\\w+\\.py$</div></td></tr><tr><td><div>^control/dash/\\w+\\.py$</div></td></tr></table></div></td></tr><tr><td style="font-weight:bold;vertical-align:top;">postprocessing</td><td style="vertical-align:top;">:</td><td><div><table></table></div></td></tr><tr><td style="font-weight:bold;vertical-align:top;">session_client</td><td style="vertical-align:top;">:</td><td><div>127.0.0.1</div></td></tr><tr><td style="font-weight:bold;vertical-align:top;">session_cookie_compression_level</td><td style="vertical-align:top;">:</td><td><div>None</div></td></tr><tr><td style="font-weight:bold;vertical-align:top;">session_cookie_expires</td><td style="vertical-align:top;">:</td><td><div>None</div></td></tr><tr><td style="font-weight:bold;vertical-align:top;">session_data_name</td><td style="vertical-align:top;">:</td><td><div>session_data_tcc</div></td></tr><tr><td style="font-weight:bold;vertical-align:top;">session_file</td><td style="vertical-align:top;">:</td><td><div>None</div></td></tr><tr><td style="font-weight:bold;vertical-align:top;">session_filename</td><td style="vertical-align:top;">:</td><td><div>/var/www/web2py/applications/tcc/sessions/127.0.0.1-31e8dae5-d53c-458b-a1a7-09ed61a72211</div></td></tr><tr><td style="font-weight:bold;vertical-align:top;">session_hash</td><td style="vertical-align:top;">:</td><td><div>c0762cbf4baf7f9af97c051e7fcb8083</div></td></tr><tr><td style="font-weight:bold;vertical-align:top;">session_id</td><td style="vertical-align:top;">:</td><td><div>127.0.0.1-31e8dae5-d53c-458b-a1a7-09ed61a72211</div></td></tr><tr><td style="font-weight:bold;vertical-align:top;">session_id_name</td><td style="vertical-align:top;">:</td><td><div>session_id_tcc</div></td></tr><tr><td style="font-weight:bold;vertical-align:top;">session_masterapp</td><td style="vertical-align:top;">:</td><td><div>tcc</div></td></tr><tr><td style="font-weight:bold;vertical-align:top;">session_new</td><td style="vertical-align:top;">:</td><td><div>True</div></td></tr><tr><td style="font-weight:bold;vertical-align:top;">session_storage_type</td><td style="vertical-align:top;">:</td><td><div>file</div></td></tr><tr><td style="font-weight:bold;vertical-align:top;">status</td><td style="vertical-align:top;">:</td><td><div>200</div></td></tr><tr><td style="font-weight:bold;vertical-align:top;">view</td><td style="vertical-align:top;">:</td><td><div>estrutura/dash.html</div></td></tr></table></div>'
tRp123
sS'locals'
p124
(dp125
S'disp'
p126
S'[]'
p127
sS'OBJECT'
p128
S"<class 'gluon.html.OBJECT'>"
p129
sS'SQLDB'
p130
S"<class 'pydal.base.DAL'>"
p131
sg116
S'<Storage {}>'
p132
sS'LINK'
p133
S"<class 'gluon.html.LINK'>"
p134
sS'BR'
p135
S"<class 'gluon.html.BR'>"
p136
sS'local_import'
p137
S'<function <lambda>>'
p138
sS'OPTGROUP'
p139
S"<class 'gluon.html.OPTGROUP'>"
p140
sS'__package__'
p141
S'None'
p142
sS'PRE'
p143
S"<class 'gluon.html.PRE'>"
p144
sS'IS_INT_IN_RANGE'
p145
S"<class 'gluon.validators.IS_INT_IN_RANGE'>"
p146
sS'IS_LOWER'
p147
S"<class 'gluon.validators.IS_LOWER'>"
p148
sS'IS_STRONG'
p149
S"<class 'gluon.validators.IS_STRONG'>"
p150
sS'cache'
p151
S'<gluon.cache.Cache object>'
p152
sS'gatewayIp'
p153
S"'192.168.0.1'"
p154
sS'IS_IN_DB'
p155
S"<class 'gluon.validators.IS_IN_DB'>"
p156
sS'TAG'
p157
S'<gluon.html.__TAG__ object>'
p158
sS'SQLField'
p159
S"<class 'pydal.objects.Field'>"
p160
sS'BODY'
p161
S"<class 'gluon.html.BODY'>"
p162
sS'IS_DATE_IN_RANGE'
p163
S"<class 'gluon.validators.IS_DATE_IN_RANGE'>"
p164
sS'IFRAME'
p165
S"<class 'gluon.html.IFRAME'>"
p166
sS'URL'
p167
S'<function URL>'
p168
sS'__file__'
p169
S"'/var/www/web2py/applications/tcc/views/estrutura/dash.html'"
p170
sS'db'
p171
S'<DAL uri="sqlite://Scans.db">'
p172
sS'auth'
p173
S'<gluon.tools.Auth object>'
p174
sS'P'
S"<class 'gluon.html.P'>"
p175
sS'TFOOT'
p176
S"<class 'gluon.html.TFOOT'>"
p177
sS'XHTML'
p178
S"<class 'gluon.html.XHTML'>"
p179
sS'ON'
p180
S'True'
p181
sS'OL'
p182
S"<class 'gluon.html.OL'>"
p183
sS'TEXTAREA'
p184
S"<class 'gluon.html.TEXTAREA'>"
p185
sS'MENU'
p186
S"<class 'gluon.html.MENU'>"
p187
sS'count_linux'
p188
S'0'
sS'IS_IMAGE'
p189
S"<class 'gluon.validators.IS_IMAGE'>"
p190
sS'outros_disp'
p191
S'[]'
p192
sS'EM'
p193
S"<class 'gluon.html.EM'>"
p194
sS'CODE'
p195
S"<class 'gluon.html.CODE'>"
p196
sS'HTTP'
p197
S"<class 'gluon.http.HTTP'>"
p198
sS'HR'
p199
S"<class 'gluon.html.HR'>"
p200
sS'ip_externo'
p201
S"['  % Total    % Received % Xferd  Average Speed   Time    Time     Time  Current', '                                 Dload  Upload   Total   Spent    Left  Speed', '\\r  0     0    0     0    0     0      0      0 -...  0curl: (6) Could not resolve host: ifconfig.pro']"
p202
sS'IS_DATETIME'
p203
S"<class 'gluon.validators.IS_DATETIME'>"
p204
sS'STYLE'
p205
S"<class 'gluon.html.STYLE'>"
p206
sS'LABEL'
p207
S"<class 'gluon.html.LABEL'>"
p208
sS'count_windows'
p209
S'0'
sS'CLEANUP'
p210
S"<class 'gluon.validators.CLEANUP'>"
p211
sS'SELECT'
p212
S"<class 'gluon.html.SELECT'>"
p213
sS'CENTER'
p214
S"<class 'gluon.html.CENTER'>"
p215
sS'Auth'
p216
S"<class 'gluon.tools.Auth'>"
p217
sS'__builtins__'
p218
S"{'ArithmeticError': <type 'exceptions.ArithmeticError'>, 'AssertionError': <type 'exceptions.AssertionError'>, 'AttributeError': <type 'exceptions.AttributeError'>, 'BaseException': <type 'exceptions.BaseException'>, 'BufferError': <type 'exceptions.BufferError'>, 'BytesWarning': <type 'exceptions.BytesWarning'>, 'DeprecationWarning': <type 'exceptions.DeprecationWarning'>, 'EOFError': <type 'exceptions.EOFError'>, 'Ellipsis': Ellipsis, 'EnvironmentError': <type 'exceptions.EnvironmentError'>, ...}"
p219
sS'HTML'
p220
S"<class 'gluon.html.HTML'>"
p221
sS'linux_disp'
p222
S'[]'
p223
sS'SQLFORM'
p224
S"<class 'gluon.sqlhtml.SQLFORM'>"
p225
sS'LOAD'
p226
S'<function LOAD>'
p227
sS'redirect'
p228
S'<function redirect>'
p229
sS'FIELDSET'
p230
S"<class 'gluon.html.FIELDSET'>"
p231
sS'IS_EQUAL_TO'
p232
S"<class 'gluon.validators.IS_EQUAL_TO'>"
p233
sS'embed64'
p234
S'<function embed64>'
p235
sS'IS_LIST_OF'
p236
S"<class 'gluon.validators.IS_LIST_OF'>"
p237
sS'INPUT'
p238
S"<class 'gluon.html.INPUT'>"
p239
sS'EMBED'
p240
S"<class 'gluon.html.EMBED'>"
p241
sS'Scan'
p242
S'(<Table Scan (id, gatewayIp, interface, idTipoStatusScan, dataInicioScan)>,)'
p243
sS'H2'
p244
S"<class 'gluon.html.H2'>"
p245
sS'H3'
p246
S"<class 'gluon.html.H3'>"
p247
sS'BUTTON'
p248
S"<class 'gluon.html.BUTTON'>"
p249
sS'H1'
p250
S"<class 'gluon.html.H1'>"
p251
sS'H6'
p252
S"<class 'gluon.html.H6'>"
p253
sS'H4'
p254
S"<class 'gluon.html.H4'>"
p255
sS'H5'
p256
S"<class 'gluon.html.H5'>"
p257
sS'UL'
p258
S"<class 'gluon.html.UL'>"
p259
sS'IS_UPPER'
p260
S"<class 'gluon.validators.IS_UPPER'>"
p261
sS'windows_disp'
p262
S'[]'
p263
sS'xmlescape'
p264
S'<function xmlescape>'
p265
sS'IS_TIME'
p266
S"<class 'gluon.validators.IS_TIME'>"
p267
sS'count_disp'
p268
S'0'
sS'TipoStatusScan'
p269
S'(<Table TipoStatusScan (id, nome)>,)'
p270
sS'OPTION'
p271
S"<class 'gluon.html.OPTION'>"
p272
sS'TITLE'
p273
S"<class 'gluon.html.TITLE'>"
p274
sS'CRYPT'
p275
S"<class 'gluon.validators.CRYPT'>"
p276
sS'IS_EMPTY_OR'
p277
S"<class 'gluon.validators.IS_EMPTY_OR'>"
p278
sS'MARKMIN'
p279
S"<class 'gluon.html.MARKMIN'>"
p280
sS'ScanDispositivoPorta'
p281
S'(<Table ScanDispositivoPorta (id, idScanDispositivo, porta, nome)>,)'
p282
sS'ips'
p283
S"'192.168.0.101 \\n'"
p284
sS'__name__'
p285
S"'__restricted__'"
p286
sS'count_outros'
p287
S'0'
sS'STRONG'
p288
S"<class 'gluon.html.STRONG'>"
p289
sS'COL'
p290
S"<class 'gluon.html.COL'>"
p291
sS'SCRIPT'
p292
S"<class 'gluon.html.SCRIPT'>"
p293
sS'TABLE'
p294
S"<class 'gluon.html.TABLE'>"
p295
sS'IS_IPV4'
p296
S"<class 'gluon.validators.IS_IPV4'>"
p297
sS'IS_LENGTH'
p298
S"<class 'gluon.validators.IS_LENGTH'>"
p299
sS'IS_IPV6'
p300
S"<class 'gluon.validators.IS_IPV6'>"
p301
sS'XML'
p302
S"<class 'gluon.html.XML'>"
p303
sS'B'
S"<class 'gluon.html.B'>"
p304
sS'IMG'
p305
S"<class 'gluon.html.IMG'>"
p306
sS'SQLTABLE'
p307
S"<class 'gluon.sqlhtml.SQLTABLE'>"
p308
sS'IS_MATCH'
p309
S"<class 'gluon.validators.IS_MATCH'>"
p310
sS'IS_ALPHANUMERIC'
p311
S"<class 'gluon.validators.IS_ALPHANUMERIC'>"
p312
sS'SPAN'
p313
S"<class 'gluon.html.SPAN'>"
p314
sS'IS_JSON'
p315
S"<class 'gluon.validators.IS_JSON'>"
p316
sS'IS_IPADDRESS'
p317
S"<class 'gluon.validators.IS_IPADDRESS'>"
p318
sS'IS_SLUG'
p319
S"<class 'gluon.validators.IS_SLUG'>"
p320
sS'ScanDispositivo'
p321
S'(<Table ScanDispositivo (id, idScan, ip, mac, nomeFabricante, nomeOs)>,)'
p322
sS'BEAUTIFY'
p323
S"<class 'gluon.html.BEAUTIFY'>"
p324
sS'META'
p325
S"<class 'gluon.html.META'>"
p326
sS'IS_DATE'
p327
S"<class 'gluon.validators.IS_DATE'>"
p328
sS'IS_EMAIL'
p329
S"<class 'gluon.validators.IS_EMAIL'>"
p330
sS'IS_NOT_EMPTY'
p331
S"<class 'gluon.validators.IS_NOT_EMPTY'>"
p332
sS'IS_FLOAT_IN_RANGE'
p333
S"<class 'gluon.validators.IS_FLOAT_IN_RANGE'>"
p334
sS'TBODY'
p335
S"<class 'gluon.html.TBODY'>"
p336
sS'CAT'
p337
S"<class 'gluon.html.CAT'>"
p338
sS'Field'
p339
S"<class 'pydal.objects.Field'>"
p340
sS'IS_LIST_OF_EMAILS'
p341
S"<class 'gluon.validators.IS_LIST_OF_EMAILS'>"
p342
sS'DIV'
p343
S"<class 'gluon.html.DIV'>"
p344
sS'LEGEND'
p345
S"<class 'gluon.html.LEGEND'>"
p346
sS'count_portas'
p347
S'0'
sS'DAL'
p348
S"<class 'pydal.base.DAL'>"
p349
sS'ASSIGNJS'
p350
S'<function ASSIGNJS>'
p351
sS'TR'
p352
S"<class 'gluon.html.TR'>"
p353
sS'LI'
p354
S"<class 'gluon.html.LI'>"
p355
sS'TH'
p356
S"<class 'gluon.html.TH'>"
p357
sS'TD'
p358
S"<class 'gluon.html.TD'>"
p359
sS'IS_URL'
p360
S"<class 'gluon.validators.IS_URL'>"
p361
sS'A'
S"<class 'gluon.html.A'>"
p362
sS'HEAD'
p363
S"<class 'gluon.html.HEAD'>"
p364
sS'IS_DATETIME_IN_RANGE'
p365
S"<class 'gluon.validators.IS_DATETIME_IN_RANGE'>"
p366
sS'FORM'
p367
S"<class 'gluon.html.FORM'>"
p368
sS'Usuario'
p369
S'<Table Usuario (id, nome, senha)>'
p370
sS'I'
S"<class 'gluon.html.I'>"
p371
sS'IS_NOT_IN_DB'
p372
S"<class 'gluon.validators.IS_NOT_IN_DB'>"
p373
sg122
S"<Storage {'body': <cStringIO.StringO object at 0... 0x7fa5eea9c9b0>, 'view': 'estrutura/dash.html'}>"
p374
sS'THEAD'
p375
S"<class 'gluon.html.THEAD'>"
p376
sS'ANY_OF'
p377
S"<class 'gluon.validators.ANY_OF'>"
p378
sS'IS_NULL_OR'
p379
S"<class 'gluon.validators.IS_EMPTY_OR'>"
p380
sS'COLGROUP'
p381
S"<class 'gluon.html.COLGROUP'>"
p382
sg56
S"<Storage {'_vars': None, 'function': 'dash', 'co..., 'folder': '/var/www/web2py/applications/tcc/'}>"
p383
sS'IS_EXPR'
p384
S"<class 'gluon.validators.IS_EXPR'>"
p385
sS'T'
S'<gluon.languages.translator object>'
p386
sS'IS_IN_SET'
p387
S"<class 'gluon.validators.IS_IN_SET'>"
p388
sS'IS_UPLOAD_FILENAME'
p389
S"<class 'gluon.validators.IS_UPLOAD_FILENAME'>"
p390
sS'TT'
p391
S"<class 'gluon.html.TT'>"
p392
sS'IS_DECIMAL_IN_RANGE'
p393
S"<class 'gluon.validators.IS_DECIMAL_IN_RANGE'>"
p394
sssS'traceback'
p395
S'Traceback (most recent call last):\n  File "/var/www/web2py/gluon/restricted.py", line 227, in restricted\n    exec ccode in environment\n  File "/var/www/web2py/applications/tcc/views/estrutura/dash.html", line 72, in <module>\n    </div>\nIndexError: list index out of range\n'
p396
s.