(dp1
S'output'
p2
S'The "end" tag is unmatched, please check if you have a starting "block" tag'
p3
sS'layer'
p4
S'ParserContainer'
p5
sS'code'
p6
S'{{extend \'estrutura/layout.html\'}}\n\n{{block center}}\n<br>\n<div class="modal fade" id="modalWindows">\n  <div class="modal-dialog" role="document">\n    <div class="modal-content">\n      <div class="modal-header">\n        <h5 class="modal-title">Dispositivos Windows</h5>\n        <button type="button" class="close" data-dismiss="modal" aria-label="Close">\n          <span aria-hidden="true">&times;</span>\n        </button>\n      </div>\n      <div class="modal-body">\n                <div class="table-responsive">\n                    <table class="table table-bordered table-hover table-striped">\n                        <thead>\n                        <tr>\n                            <th>Ip</th>\n                            <th>Mac</th>\n                            <th>Fabricante</th>\n                        </tr>\n                        </thead>\n                        <tbody>\n                        <tr>\n                            <td>0</td>\n                            <td>0</td>\n                            <td>0</td>\n                        </tr>\n                        </tbody>\n                    </table>\n            </div>\n      </div>\n      <div class="modal-footer">\n        <button type="button" class="btn btn-secondary" data-dismiss="modal">Fechar</button>\n      </div>\n    </div>\n  </div>\n</div>\n<div class="modal fade" id="modalLinux">\n  <div class="modal-dialog" role="document">\n    <div class="modal-content">\n      <div class="modal-header">\n        <h5 class="modal-title">Dispositivos Linux</h5>\n        <button type="button" class="close" data-dismiss="modal" aria-label="Close">\n          <span aria-hidden="true">&times;</span>\n        </button>\n      </div>\n      <div class="modal-body">\n                <div class="table-responsive">\n                    <table class="table table-bordered table-hover table-striped">\n                        <thead>\n                        <tr>\n                            <th>Ip</th>\n                            <th>Mac</th>\n                            <th>Fabricante</th>\n                        </tr>\n                        </thead>\n                        <tbody>\n                            {{for item in linux_disp:}}<tr><td>{{=item.ip}}</td></tr>{{end}}\n                        </tbody>\n                    </table>\n            </div>\n      </div>\n      <div class="modal-footer">\n        <button type="button" class="btn btn-secondary" data-dismiss="modal">Fechar</button>        \n      </div>\n    </div>\n  </div>\n</div>\n<div class="modal fade" id="modalOutros">\n  <div class="modal-dialog" role="document">\n    <div class="modal-content">\n      <div class="modal-header">\n        <h5 class="modal-title">Outros Dispositivos</h5>\n        <button type="button" class="close" data-dismiss="modal" aria-label="Close">\n          <span aria-hidden="true">&times;</span>\n        </button>\n      </div>\n      <div class="modal-body">\n                <div class="table-responsive">\n                    <table class="table table-bordered table-hover table-striped">\n                        <thead>\n                        <tr>\n                            <th>Ip</th>\n                            <th>Mac</th>\n                            <th>Fabricante</th>\n                        </tr>\n                        </thead>\n                        <tbody>\n                        <tr>\n                            <td>0</td>\n                            <td>0</td>\n                            <td>0</td>\n                        </tr>\n                        </tbody>\n                    </table>\n            </div>\n      </div>\n      <div class="modal-footer">\n            <button type="button" class="btn btn-secondary" data-dismiss="modal">Fechar</button>\n      </div>\n    </div>\n  </div>\n</div>\n<div class="container-fluid">\n    <!-- Page Heading -->\n    <div class="row">\n        <div class="col-lg-12">\n            <h1 class="page-header">\n                Dashboard\n                <small></small>\n            </h1>\n            <ol class="breadcrumb">\n                <li>\n                    <i class="fa fa-dashboard"></i>  <a href="{{=URL(a=\'tcc\', c=\'control\', f=\'dash\')}}">Dashboard</a>\n                </li>\n                <li class="active"></li>\n            </ol>\n        </div>\n    </div><!-- /.row -->\n</div><!-- /.container-fluid -->\n\n<div class="row">\n    <div class="col-lg-3 col-md-6">\n        <div class="panel panel-primary">\n            <div class="panel-heading">\n                <div class="row">\n                    <div class="col-xs-3">\n                        <i class="fa fa-windows fa-5x"></i>\n                    </div>\n                    <div class="col-xs-9 text-right">\n                    <div class="huge">{{=count_windows}}</div>\n                        <div>Windows</div>\n                    </div>\n                </div>\n            </div>\n            <a href="#" onclick="openModal(1)">\n                <div class="panel-footer">\n                    <span class="pull-left">Ver Detalhes</span>\n                    <span class="pull-right"><i class="fa fa-arrow-circle-right"></i></span>\n                    <div class="clearfix"></div>\n                </div>\n            </a>\n        </div>\n    </div>\n\n    <div class="col-lg-3 col-md-6">\n        <div class="panel panel-green">\n            <div class="panel-heading">\n                <div class="row">\n                    <div class="col-xs-3">\n                        <i class="fa fa-linux fa-5x"></i>\n                    </div>\n                    <div class="col-xs-9 text-right">\n                        <div class="huge">{{=count_linux}}</div>\n                        <div>Linux</div>\n                    </div>\n                </div>\n            </div>\n            <a href="#" onclick="openModal(2)">\n                <div class="panel-footer">\n                    <span class="pull-left">Ver Detalhes</span>\n                    <span class="pull-right"><i class="fa fa-arrow-circle-right"></i></span>\n                    <div class="clearfix"></div>\n                </div>\n            </a>\n        </div>\n    </div>\n    <div class="col-lg-3 col-md-6">\n        <div class="panel panel-yellow">\n            <div class="panel-heading">\n                <div class="row">\n                    <div class="col-xs-3">\n                        <i class="fa fa-android fa-5x"></i>\n                    </div>\n                    <div class="col-xs-9 text-right">\n                        <div class="huge">{{=count_outros}}</div>\n                        <div>Outros Dispositivos</div>\n                    </div>\n                </div>\n            </div>\n            <a href="#" onclick="openModal(3)">\n                <div class="panel-footer">\n                    <span class="pull-left">Ver Detalhes</span>\n                    <span class="pull-right"><i class="fa fa-arrow-circle-right"></i></span>\n                    <div class="clearfix"></div>\n                </div>\n            </a>\n        </div>\n    </div>\n    <div class="col-lg-3 col-md-6">\n        <div class="panel panel-red">\n            <div class="panel-heading">\n                <div class="row">\n                    <div class="col-xs-3">\n                        <i class="fa fa-warning fa-5x"></i>\n                    </div>\n                    <div class="col-xs-9 text-right">\n                        <div class="huge">{{=count_portas}}</div>\n                        <div>Portas Abertas</div>\n                    </div>\n                </div>\n            </div>\n            <a href="#">\n                <div class="panel-footer">\n                    <span class="pull-left">Ver Detalhes</span>\n                    <span class="pull-right"><i class="fa fa-arrow-circle-right"></i></span>\n                    <div class="clearfix"></div>\n                </div>\n            </a>\n        </div>\n    </div>\n</div>\n<br>\n<br>\n\n<!--<div class="row">-->\n    <!--<div class="col-lg-2">-->\n        <!--<form role="form">-->\n            <!--<div class="form-group">-->\n                <!--<label>Taxa de Atualiza\xc3\xa7\xc3\xa3o:</label>-->\n                <!--<select id="tempo_atualizacao_novo" class="form-control">-->\n                    <!--<option value="0">N\xc3\xa3o atualizar</option>-->\n                    <!--<option value="5000" selected="selected">5 Segundos</option>-->\n                    <!--<option value="10000">10 Segundos</option>-->\n                    <!--<option value="15000">15 Segundos</option>-->\n                <!--</select><br/>-->\n            <!--</div>-->\n        <!--</form>-->\n    <!--</div>-->\n<!--</div>-->\n\n<!--<div class="row">-->\n    <!--<div class="col-lg-3">-->\n        <!--<h2>Info-Net</h2>-->\n        <!--<div class="table-responsive">-->\n            <!--<table class="table table-bordered table-hover">-->\n                <!--<tr>-->\n                    <!--<td>IP Externo: </td>-->\n                    <!--<td>{{=ip_externo[3]}}</td>-->\n                <!--</tr>-->\n                <!--<tr>-->\n                    <!--<td>Meu IP:</td>-->\n                    <!--<td>{{=ips}}</td>-->\n                <!--</tr>-->\n                <!--<tr>-->\n                     <!--<td>Quantidade Host: </td>-->\n                     <!--&lt;!&ndash;<td><span id="qtde_host"> </span></td>&ndash;&gt;-->\n                <!--</tr>-->\n            <!--</table>-->\n        <!--</div>-->\n    <!--</div>-->\n<!--</div>-->\n\n<br><br><br>\n\n<div id="page-wrapper">\n    <div class="container-fluid">\n        <div class="row">\n\n            <!--<div class="col-lg-4">-->\n                <!--<div class="panel panel-default">-->\n                    <!--<div class="panel-heading">-->\n                        <!--<h3 class="panel-title"><i class="fa fa-money fa-fw"></i> Transactions Panel</h3>-->\n                    <!--</div>-->\n                    <!--<div class="panel-body">-->\n                        <!--<div class="table-responsive">-->\n                            <!--<table class="table table-bordered table-hover table-striped">-->\n                                <!--<thead>-->\n                                <!--<tr>-->\n                                    <!--<th>Order #</th>-->\n                                    <!--<th>Order Date</th>-->\n                                    <!--<th>Order Time</th>-->\n                                    <!--<th>Amount (USD)</th>-->\n                                <!--</tr>-->\n                                <!--</thead>-->\n                                <!--<tbody>-->\n                                <!--<tr>-->\n                                    <!--<td>3326</td>-->\n                                    <!--<td>10/21/2013</td>-->\n                                    <!--<td>3:29 PM</td>-->\n                                    <!--<td>$321.33</td>-->\n                                <!--</tr>-->\n                                <!--<tr>-->\n                                    <!--<td>3325</td>-->\n                                    <!--<td>10/21/2013</td>-->\n                                    <!--<td>3:20 PM</td>-->\n                                    <!--<td>$234.34</td>-->\n                                <!--</tr>-->\n                                <!--</tbody>-->\n\n                            <!--</table>-->\n                        <!--</div>-->\n                        <!--<div class="text-right">-->\n                            <!--<a href="#">View All Transactions <i class="fa fa-arrow-circle-right"></i></a>-->\n                        <!--</div>-->\n                    <!--</div>-->\n                <!--</div>-->\n            <!--</div>-->\n            <div class="col-lg-6">\n                <h2>Informa\xc3\xa7\xc3\xa3o da Rede</h2>\n                <div class="table-responsive">\n                    <table class="table table-bordered table-hover">\n                        <tbody>\n                        <tr>\n                            <th>Meu IP</th>\n                            <td>{{=ips}}</td>\n                        </tr>\n                        <tr>\n                            <th>IP Externo</th>\n                            <td>{{=ip_externo[3]}}</td>\n                        </tr>\n                        <tr>\n                            <th>Quantidade Host</th>\n                            <td><span id="qtde_host"></span></td>\n                        </tr>\n                        </tbody>\n                    </table>\n                </div>\n            </div>\n            <div class="col-lg-6">\n                <h2>Servi\xc3\xa7os comuns associados as principais portas utilizadas</h2>\n                <div class="table-responsive">\n                    <table class="table table-bordered table-hover table-striped">\n                        <thead>\n                        <tr>\n                            <th>Servi\xc3\xa7o/Porta</th>\n                            <th>Hosts</th>\n                        </tr>\n                        </thead>\n                        <tbody>\n                        <tr>\n                            <td>FTP/21</td>\n                            <td>1265</td>\n                        </tr>\n                        <tr>\n                            <td>SSH/22</td>\n                            <td>261</td>\n                        </tr>\n                        <tr>\n                            <td>Telnet/23</td>\n                            <td>665</td>\n                        </tr>\n                        <tr>\n                            <td>SMTP/25</td>\n                            <td>9516</td>\n                        </tr>\n                        <tr>\n                            <td>DNS/53</td>\n                            <td>23</td>\n                        </tr>\n                        <tr>\n                            <td>HTTP/80</td>\n                            <td>421</td>\n                        </tr>\n                        <tr>\n                            <td>RPC/111</td>\n                            <td>1233</td>\n                        </tr>\n                        <tr>\n                            <td>NetBIOS/137</td>\n                            <td>1233</td>\n                        </tr>\n                        <tr>\n                            <td>HTTPS/443</td>\n                            <td>1233</td>\n                        </tr>\n                        <tr>\n                            <td>SMB/445</td>\n                            <td>1233</td>\n                        </tr>\n                        </tbody>\n                    </table>\n                </div>\n            </div>\n        </div>\n        <!-- /.row -->\n\n        <div class="row">\n            <div class="col-lg-6">\n                <h2>Basic Table</h2>\n                <div class="table-responsive">\n                    <table class="table table-hover">\n                        <thead>\n                        <tr>\n                            <th>Page</th>\n                            <th>Visits</th>\n                            <th>% New Visits</th>\n                            <th>Revenue</th>\n                        </tr>\n                        </thead>\n                        <tbody>\n                        <tr>\n                            <td>/index.html</td>\n                            <td>1265</td>\n                            <td>32.3%</td>\n                            <td>$321.33</td>\n                        </tr>\n                        <tr>\n                            <td>/about.html</td>\n                            <td>261</td>\n                            <td>33.3%</td>\n                            <td>$234.12</td>\n                        </tr>\n                        <tr>\n                            <td>/sales.html</td>\n                            <td>665</td>\n                            <td>21.3%</td>\n                            <td>$16.34</td>\n                        </tr>\n                        <tr>\n                            <td>/blog.html</td>\n                            <td>9516</td>\n                            <td>89.3%</td>\n                            <td>$1644.43</td>\n                        </tr>\n                        <tr>\n                            <td>/404.html</td>\n                            <td>23</td>\n                            <td>34.3%</td>\n                            <td>$23.52</td>\n                        </tr>\n                        <tr>\n                            <td>/services.html</td>\n                            <td>421</td>\n                            <td>60.3%</td>\n                            <td>$724.32</td>\n                        </tr>\n                        <tr>\n                            <td>/blog/post.html</td>\n                            <td>1233</td>\n                            <td>93.2%</td>\n                            <td>$126.34</td>\n                        </tr>\n                        </tbody>\n                    </table>\n                </div>\n            </div>\n            <div class="col-lg-6">\n                <h2>Striped Rows</h2>\n                <div class="table-responsive">\n                    <table class="table table-hover table-striped">\n                        <thead>\n                        <tr>\n                            <th>Page</th>\n                            <th>Visits</th>\n                            <th>% New Visits</th>\n                            <th>Revenue</th>\n                        </tr>\n                        </thead>\n                        <tbody>\n                        <tr>\n                            <td>/index.html</td>\n                            <td>1265</td>\n                            <td>32.3%</td>\n                            <td>$321.33</td>\n                        </tr>\n                        <tr>\n                            <td>/about.html</td>\n                            <td>261</td>\n                            <td>33.3%</td>\n                            <td>$234.12</td>\n                        </tr>\n                        <tr>\n                            <td>/sales.html</td>\n                            <td>665</td>\n                            <td>21.3%</td>\n                            <td>$16.34</td>\n                        </tr>\n                        <tr>\n                            <td>/blog.html</td>\n                            <td>9516</td>\n                            <td>89.3%</td>\n                            <td>$1644.43</td>\n                        </tr>\n                        <tr>\n                            <td>/404.html</td>\n                            <td>23</td>\n                            <td>34.3%</td>\n                            <td>$23.52</td>\n                        </tr>\n                        <tr>\n                            <td>/services.html</td>\n                            <td>421</td>\n                            <td>60.3%</td>\n                            <td>$724.32</td>\n                        </tr>\n                        <tr>\n                            <td>/blog/post.html</td>\n                            <td>1233</td>\n                            <td>93.2%</td>\n                            <td>$126.34</td>\n                        </tr>\n                        </tbody>\n                    </table>\n                </div>\n            </div>\n        </div>\n        <!-- /.row -->\n\n        <div class="row">\n            <div class="col-lg-6">\n                <h2>Contextual Classes</h2>\n                <div class="table-responsive">\n                    <table class="table table-bordered table-hover table-striped">\n                        <thead>\n                        <tr>\n                            <th>Page</th>\n                            <th>Visits</th>\n                            <th>% New Visits</th>\n                            <th>Revenue</th>\n                        </tr>\n                        </thead>\n                        <tbody>\n                        <tr class="active">\n                            <td>/index.html</td>\n                            <td>1265</td>\n                            <td>32.3%</td>\n                            <td>$321.33</td>\n                        </tr>\n                        <tr class="success">\n                            <td>/about.html</td>\n                            <td>261</td>\n                            <td>33.3%</td>\n                            <td>$234.12</td>\n                        </tr>\n                        <tr class="warning">\n                            <td>/sales.html</td>\n                            <td>665</td>\n                            <td>21.3%</td>\n                            <td>$16.34</td>\n                        </tr>\n                        <tr class="danger">\n                            <td>/blog.html</td>\n                            <td>9516</td>\n                            <td>89.3%</td>\n                            <td>$1644.43</td>\n                        </tr>\n                        <tr>\n                            <td>/404.html</td>\n                            <td>23</td>\n                            <td>34.3%</td>\n                            <td>$23.52</td>\n                        </tr>\n                        <tr>\n                            <td>/services.html</td>\n                            <td>421</td>\n                            <td>60.3%</td>\n                            <td>$724.32</td>\n                        </tr>\n                        <tr>\n                            <td>/blog/post.html</td>\n                            <td>1233</td>\n                            <td>93.2%</td>\n                            <td>$126.34</td>\n                        </tr>\n                        </tbody>\n                    </table>\n                </div>\n            </div>\n            <div class="col-lg-6">\n                <h2>Bootstrap Docs</h2>\n                <p>For complete documentation, please visit <a target="_blank" href="http://getbootstrap.com/css/#tables">Bootstrap\'s Tables Documentation</a>.</p>\n            </div>\n        </div>\n        <!-- /.row -->\n\n    </div>\n    <!-- /.container-fluid -->\n\n</div>\n<!-- /#page-wrapper -->\n\n</div>\n<!-- /#wrapper -->\n\n<!-- jQuery -->\n<script src="js/jquery.js"></script>\n\n<!-- Bootstrap Core JavaScript -->\n<script src="js/bootstrap.min.js"></script>\n\n\n\n\n\n\n\n\n\n\n\n\n\n<div class="col-lg-4">\n    <div class="panel panel-default">\n        <div class="panel-heading">\n            <h3 class="panel-title"><i class="fa fa-money fa-fw"></i> Transactions Panel</h3>\n        </div>\n        <div class="panel-body">\n            <div class="table-responsive">\n                <table class="table table-bordered table-hover table-striped">\n                    <thead>\n                    <tr>\n                        <th>Order #</th>\n                        <th>Order Date</th>\n                        <th>Order Time</th>\n                        <th>Amount (USD)</th>\n                    </tr>\n                    </thead>\n                    <tbody>\n                    <tr>\n                        <td>3326</td>\n                        <td>10/21/2013</td>\n                        <td>3:29 PM</td>\n                        <td>$321.33</td>\n                    </tr>\n                    <tr>\n                        <td>3325</td>\n                        <td>10/21/2013</td>\n                        <td>3:20 PM</td>\n                        <td>$234.34</td>\n                    </tr>\n                    </tbody>\n\n                </table>\n            </div>\n            <div class="text-right">\n                <a href="#">View All Transactions <i class="fa fa-arrow-circle-right"></i></a>\n            </div>\n        </div>\n    </div>\n</div>\n\n\n\n\n\n\n\n\n\n\n\n{{end}}\n\n{{block javascript}}\n\n<!--<script>-->\n    <!--$.get("{{=URL(a=\'tcc\', c=\'control\', f=\'get_ip\')}}", function( data ) {-->\n    <!--$(\'#ip_int\').html(data)-->\n    <!--});-->\n\n    <!--$.get("{{=URL(a=\'tcc\', c=\'control\', f=\'gateway\')}}", function( data ) {-->\n    <!--$(\'#gateway\').html(data)-->\n    <!--});-->\n\n    <!--$.get("{{=URL(a=\'tcc\', c=\'control\', f=\'qtde_so\')}}", function( data ) {-->\n    <!--alert(JSON.stringify(data))-->\n    <!--var x = data.split(\',\')-->\n    <!--$(\'#testando\').html(x[0].split(\':\')[1])-->\n    <!--$(\'#testando1\').html(x[1].split(\':\')[1])-->\n    <!--});-->\n\n    <!--$.get("{{=URL(a=\'tcc\', c=\'control\', f=\'qtde_host\')}}", function( data ) {-->\n    <!--$(\'#qtde_host\').html(data)-->\n    <!--});-->\n<!--</script>-->\n\n<script>\n    $.get("{{=URL(a=\'tcc\', c=\'control\', f=\'qtde_host\')}}", function( data ) {\n    $(\'#qtde_host\').html(data)\n    });\n\n    function openModal(tipo){\n        if(tipo == 1){\n            $("#modalWindows").modal("show");\n            return;\n        }\n        \n        if(tipo == 2){\n            $("#modalLinux").modal("show");\n            return;\n        }\n\n        else{\n            $("#modalOutros").modal("show");\n            return;\n        }\n    }\n</script>\n\n{{end}}'
p7
sS'snapshot'
p8
(dp9
sS'traceback'
p10
S'None\n'
p11
s.